 Mtftp4Dxe

 Timestamp is 5c23c3c8 (Thu Dec 27 02:09:12 2018)

 Preferred load address is 0000000000010000

 Start         Length     Name                   Class
 0001:00000000 00000130H .text                   CODE
 0001:00000130 00007ee3H .text$mn                CODE
 0002:00000000 00001fd4H .rdata                  DATA
 0002:00001fd4 0000013cH .rdata$zzzdbg           DATA
 0003:00000000 00000338H .data                   DATA
 0003:00000338 00000060H .bss                    DATA
 0004:00000000 00000051H .edata                  DATA
 0005:00000000 00000564H .pdata                  DATA
 0006:00000000 00000400H .xdata                  DATA

  Address         Publics by Value              Rva+Base               Lib:Object

 0000:00000000       __guard_iat_table          0000000000000000     <absolute>
 0000:00000000       __dynamic_value_reloc_table 0000000000000000     <absolute>
 0000:00000000       __volatile_metadata        0000000000000000     <absolute>
 0000:00000000       __guard_longjmp_count      0000000000000000     <absolute>
 0000:00000000       __guard_longjmp_table      0000000000000000     <absolute>
 0000:00000000       __guard_iat_count          0000000000000000     <absolute>
 0000:00000000       __enclave_config           0000000000000000     <absolute>
 0000:00000000       __hybrid_code_map          0000000000000000     <absolute>
 0000:00000000       __hybrid_auxiliary_iat     0000000000000000     <absolute>
 0000:00000000       __guard_fids_count         0000000000000000     <absolute>
 0000:00000000       __hybrid_code_map_count    0000000000000000     <absolute>
 0000:00000000       __guard_fids_table         0000000000000000     <absolute>
 0000:00000100       __guard_flags              0000000000000100     <absolute>
 0001:00000000       InternalMemCopyMem         0000000000011000     BaseMemoryLibOptDxe:CopyMem.obj
 0001:00000080       InternalMemZeroMem         0000000000011080     BaseMemoryLibOptDxe:ZeroMem.obj
 0001:000000a0       InternalMemCompareMem      00000000000110a0     BaseMemoryLibOptDxe:CompareMem.obj
 0001:000000c0       InternalMemSetMem          00000000000110c0     BaseMemoryLibOptDxe:SetMem.obj
 0001:00000100       InternalMemSetMem64        0000000000011100     BaseMemoryLibOptDxe:SetMem64.obj
 0001:00000120       InternalMemSetMem32        0000000000011120     BaseMemoryLibOptDxe:SetMem32.obj
 0001:00000130       _DriverUnloadHandler       0000000000011130 f   UefiDriverEntryPoint:DriverEntryPoint.obj
 0001:000002d0       _ModuleEntryPoint          00000000000112d0 f   UefiDriverEntryPoint:DriverEntryPoint.obj
 0001:00000404       ProcessLibraryConstructorList 0000000000011404 f   Mtftp4Dxe:AutoGen.obj
 0001:00000640       ProcessLibraryDestructorList 0000000000011640 f   Mtftp4Dxe:AutoGen.obj
 0001:00000698       Mtftp4DriverBindingSupported 0000000000011698 f   Mtftp4Dxe:Mtftp4Driver.obj
 0001:000006d0       Mtftp4ConfigNullUdp        00000000000116d0 f   Mtftp4Dxe:Mtftp4Driver.obj
 0001:000006d4       Mtftp4CreateService        00000000000116d4 f   Mtftp4Dxe:Mtftp4Driver.obj
 0001:00000874       Mtftp4DriverBindingStart   0000000000011874 f   Mtftp4Dxe:Mtftp4Driver.obj
 0001:000009c0       Mtftp4DestroyChildEntryInHandleBuffer 00000000000119c0 f   Mtftp4Dxe:Mtftp4Driver.obj
 0001:00000a5c       Mtftp4DriverBindingStop    0000000000011a5c f   Mtftp4Dxe:Mtftp4Driver.obj
 0001:00000c4c       Mtftp4ServiceBindingCreateChild 0000000000011c4c f   Mtftp4Dxe:Mtftp4Driver.obj
 0001:00000eac       Mtftp4ServiceBindingDestroyChild 0000000000011eac f   Mtftp4Dxe:Mtftp4Driver.obj
 0001:000010a0       Mtftp4AllocateRange        00000000000120a0 f   Mtftp4Dxe:Mtftp4Support.obj
 0001:0000110c       Mtftp4SetLastBlockNum      000000000001210c f   Mtftp4Dxe:Mtftp4Support.obj
 0001:00001170       Mtftp4RemoveBlockNum       0000000000012170 f   Mtftp4Dxe:Mtftp4Support.obj
 0001:00001288       Mtftp4SendRequest          0000000000012288 f   Mtftp4Dxe:Mtftp4Support.obj
 0001:00001508       Mtftp4SendError            0000000000012508 f   Mtftp4Dxe:Mtftp4Support.obj
 0001:000015bc       Mtftp4OnPacketSent         00000000000125bc f   Mtftp4Dxe:Mtftp4Support.obj
 0001:000015c4       Mtftp4SendPacket           00000000000125c4 f   Mtftp4Dxe:Mtftp4Support.obj
 0001:000016c0       Mtftp4Retransmit           00000000000126c0 f   Mtftp4Dxe:Mtftp4Support.obj
 0001:000017b0       Mtftp4OnTimerTickNotifyLevel 00000000000127b0 f   Mtftp4Dxe:Mtftp4Support.obj
 0001:000017ec       Mtftp4OnTimerTick          00000000000127ec f   Mtftp4Dxe:Mtftp4Support.obj
 0001:000018cc       Mtftp4ComponentNameGetDriverName 00000000000128cc f   Mtftp4Dxe:ComponentName.obj
 0001:00001900       UpdateName                 0000000000012900 f   Mtftp4Dxe:ComponentName.obj
 0001:000019d0       Mtftp4ComponentNameGetControllerName 00000000000129d0 f   Mtftp4Dxe:ComponentName.obj
 0001:00001af8       Mtftp4CleanOperation       0000000000012af8 f   Mtftp4Dxe:Mtftp4Impl.obj
 0001:00001ccc       Mtftp4GetInfoCheckPacket   0000000000012ccc f   Mtftp4Dxe:Mtftp4Impl.obj
 0001:00001db4       Mtftp4OverrideValid        0000000000012db4 f   Mtftp4Dxe:Mtftp4Impl.obj
 0001:00001ee0       Mtftp4GetMapping           0000000000012ee0 f   Mtftp4Dxe:Mtftp4Impl.obj
 0001:00001fb8       Mtftp4ConfigUnicastPort    0000000000012fb8 f   Mtftp4Dxe:Mtftp4Impl.obj
 0001:000020fc       Mtftp4Start                00000000000130fc f   Mtftp4Dxe:Mtftp4Impl.obj
 0001:00002510       EfiMtftp4GetModeData       0000000000013510 f   Mtftp4Dxe:Mtftp4Impl.obj
 0001:000025c0       EfiMtftp4Configure         00000000000135c0 f   Mtftp4Dxe:Mtftp4Impl.obj
 0001:0000280c       EfiMtftp4ParseOptions      000000000001380c f   Mtftp4Dxe:Mtftp4Impl.obj
 0001:0000286c       EfiMtftp4ReadFile          000000000001386c f   Mtftp4Dxe:Mtftp4Impl.obj
 0001:00002878       EfiMtftp4WriteFile         0000000000013878 f   Mtftp4Dxe:Mtftp4Impl.obj
 0001:00002884       EfiMtftp4ReadDirectory     0000000000013884 f   Mtftp4Dxe:Mtftp4Impl.obj
 0001:00002890       EfiMtftp4GetInfo           0000000000013890 f   Mtftp4Dxe:Mtftp4Impl.obj
 0001:00002984       EfiMtftp4Poll              0000000000013984 f   Mtftp4Dxe:Mtftp4Impl.obj
 0001:00002a20       NetStringEqualNoCase       0000000000013a20 f   Mtftp4Dxe:Mtftp4Option.obj
 0001:00002ab0       NetStringToU32             0000000000013ab0 f   Mtftp4Dxe:Mtftp4Option.obj
 0001:00002b04       Mtftp4FillOptions          0000000000013b04 f   Mtftp4Dxe:Mtftp4Option.obj
 0001:00002ba0       Mtftp4ExtractOptions       0000000000013ba0 f   Mtftp4Dxe:Mtftp4Option.obj
 0001:00002c58       Mtftp4ExtractMcast         0000000000013c58 f   Mtftp4Dxe:Mtftp4Option.obj
 0001:00002d90       Mtftp4ParseOption          0000000000013d90 f   Mtftp4Dxe:Mtftp4Option.obj
 0001:00002edc       Mtftp4ParseOptionOack      0000000000013edc f   Mtftp4Dxe:Mtftp4Option.obj
 0001:00002f58       Mtftp4RrqSendAck           0000000000013f58 f   Mtftp4Dxe:Mtftp4Rrq.obj
 0001:00002fec       Mtftp4RrqSaveBlock         0000000000013fec f   Mtftp4Dxe:Mtftp4Rrq.obj
 0001:00003154       Mtftp4RrqHandleData        0000000000014154 f   Mtftp4Dxe:Mtftp4Rrq.obj
 0001:00003270       Mtftp4RrqConfigMcastPort   0000000000014270 f   Mtftp4Dxe:Mtftp4Rrq.obj
 0001:000033d4       Mtftp4RrqHandleOack        00000000000143d4 f   Mtftp4Dxe:Mtftp4Rrq.obj
 0001:000036b0       Mtftp4RrqInput             00000000000146b0 f   Mtftp4Dxe:Mtftp4Rrq.obj
 0001:00003954       Mtftp4WrqSendBlock         0000000000014954 f   Mtftp4Dxe:Mtftp4Wrq.obj
 0001:00003b24       Mtftp4WrqHandleAck         0000000000014b24 f   Mtftp4Dxe:Mtftp4Wrq.obj
 0001:00003c30       Mtftp4WrqHandleOack        0000000000014c30 f   Mtftp4Dxe:Mtftp4Wrq.obj
 0001:00003d58       Mtftp4WrqInput             0000000000014d58 f   Mtftp4Dxe:Mtftp4Wrq.obj
 0001:00003fa8       InternalBaseLibIsListValid 0000000000014fa8 f   BaseLib:LinkedList.obj
 0001:00004038       InitializeListHead         0000000000015038 f   BaseLib:LinkedList.obj
 0001:00004070       InsertHeadList             0000000000015070 f   BaseLib:LinkedList.obj
 0001:000040c0       InsertTailList             00000000000150c0 f   BaseLib:LinkedList.obj
 0001:00004114       IsListEmpty                0000000000015114 f   BaseLib:LinkedList.obj
 0001:0000414c       RemoveEntryList            000000000001514c f   BaseLib:LinkedList.obj
 0001:00004194       StrLen                     0000000000015194 f   BaseLib:String.obj
 0001:00004228       AsciiStrLen                0000000000015228 f   BaseLib:String.obj
 0001:00004294       AsciiStrnCmp               0000000000015294 f   BaseLib:String.obj
 0001:00004360       StrnLenS                   0000000000015360 f   BaseLib:SafeString.obj
 0001:000043b8       AsciiStrnLenS              00000000000153b8 f   BaseLib:SafeString.obj
 0001:000043e4       AsciiStrCpyS               00000000000153e4 f   BaseLib:SafeString.obj
 0001:00004538       AsciiStrnCpyS              0000000000015538 f   BaseLib:SafeString.obj
 0001:00004634       CopyMem                    0000000000015634 f   BaseMemoryLibOptDxe:CopyMemWrapper.obj
 0001:000046d0       ZeroMem                    00000000000156d0 f   BaseMemoryLibOptDxe:ZeroMemWrapper.obj
 0001:00004734       CompareMem                 0000000000015734 f   BaseMemoryLibOptDxe:CompareMemWrapper.obj
 0001:000047e8       CopyGuid                   00000000000157e8 f   BaseMemoryLibOptDxe:MemLibGuid.obj
 0001:0000486c       CompareGuid                000000000001586c f   BaseMemoryLibOptDxe:MemLibGuid.obj
 0001:000048d4       DebugPrint                 00000000000158d4 f   PeiDxeDebugLibReportStatusCode:DebugLib.obj
 0001:00004aa8       DebugAssert                0000000000015aa8 f   PeiDxeDebugLibReportStatusCode:DebugLib.obj
 0001:00004bf8       InternalAllocatePool       0000000000015bf8 f   UefiMemoryAllocationLib:MemoryAllocationLib.obj
 0001:00004c28       AllocateZeroPool           0000000000015c28 f   UefiMemoryAllocationLib:MemoryAllocationLib.obj
 0001:00004c54       InternalAllocateCopyPool   0000000000015c54 f   UefiMemoryAllocationLib:MemoryAllocationLib.obj
 0001:00004ccc       FreePool                   0000000000015ccc f   UefiMemoryAllocationLib:MemoryAllocationLib.obj
 0001:00004d10       UnicodeSPrint              0000000000015d10 f   BasePrintLib:PrintLib.obj
 0001:00004d90       BasePrintLibFillBuffer     0000000000015d90 f   BasePrintLib:PrintLibInternal.obj
 0001:00004dc4       BasePrintLibValueToString  0000000000015dc4 f   BasePrintLib:PrintLibInternal.obj
 0001:00004e3c       BasePrintLibSPrintMarker   0000000000015e3c f   BasePrintLib:PrintLibInternal.obj
 0001:00005d4c       BasePrintLibSPrint         0000000000016d4c f   BasePrintLib:PrintLibInternal.obj
 0001:00005d70       CompareIso639LanguageCode  0000000000016d70 f   UefiLib:UefiLib.obj
 0001:00005dd8       EfiGetSystemConfigurationTable 0000000000016dd8 f   UefiLib:UefiLib.obj
 0001:00005e58       LookupUnicodeString2       0000000000016e58 f   UefiLib:UefiLib.obj
 0001:00005fa8       AddUnicodeString2          0000000000016fa8 f   UefiLib:UefiLib.obj
 0001:000061a8       FreeUnicodeStringTable     00000000000171a8 f   UefiLib:UefiLib.obj
 0001:00006218       GetHobList                 0000000000017218 f   DxeHobLib:HobLib.obj
 0001:0000628c       GetNextHob                 000000000001728c f   DxeHobLib:HobLib.obj
 0001:000062dc       GetDebugPrintErrorLevel    00000000000172dc f   DxeDebugPrintErrorLevelLib:DxeDebugPrintErrorLevelLib.obj
 0001:000063f8       GetDebugMask               00000000000173f8 f   DxeDebugPrintErrorLevelLib:DxeDebugPrintErrorLevelLib.obj
 0001:00006414       SetDebugMask               0000000000017414 f   DxeDebugPrintErrorLevelLib:DxeDebugPrintErrorLevelLib.obj
 0001:00006420       NetIp4IsUnicast            0000000000017420 f   DxeNetLib:DxeNetLib.obj
 0001:00006490       Ip6Swap128                 0000000000017490 f   DxeNetLib:DxeNetLib.obj
 0001:000065bc       NetDestroyLinkList         00000000000175bc f   DxeNetLib:DxeNetLib.obj
 0001:000066b0       NetLibCreateServiceChild   00000000000176b0 f   DxeNetLib:DxeNetLib.obj
 0001:00006744       NetLibDestroyServiceChild  0000000000017744 f   DxeNetLib:DxeNetLib.obj
 0001:000067d4       NetbufAllocStruct          00000000000177d4 f   DxeNetLib:NetBuffer.obj
 0001:0000688c       NetbufAlloc                000000000001788c f   DxeNetLib:NetBuffer.obj
 0001:00006934       NetbufFreeVector           0000000000017934 f   DxeNetLib:NetBuffer.obj
 0001:00006a10       NetbufFree                 0000000000017a10 f   DxeNetLib:NetBuffer.obj
 0001:00006aa0       NetbufGetByte              0000000000017aa0 f   DxeNetLib:NetBuffer.obj
 0001:00006b44       NetbufSetBlock             0000000000017b44 f   DxeNetLib:NetBuffer.obj
 0001:00006c28       NetbufFromExt              0000000000017c28 f   DxeNetLib:NetBuffer.obj
 0001:00006e7c       NetbufBuildExt             0000000000017e7c f   DxeNetLib:NetBuffer.obj
 0001:00006ef0       NetbufAllocSpace           0000000000017ef0 f   DxeNetLib:NetBuffer.obj
 0001:00007014       NetbufCopy                 0000000000018014 f   DxeNetLib:NetBuffer.obj
 0001:0000716c       UdpIoFreeTxToken           000000000001816c f   DxeUpdIoLib:DxeUdpIoLib.obj
 0001:000071bc       UdpIoFreeRxToken           00000000000181bc f   DxeUpdIoLib:DxeUdpIoLib.obj
 0001:0000720c       UdpIoOnDgramSentDpc        000000000001820c f   DxeUpdIoLib:DxeUdpIoLib.obj
 0001:00007288       UdpIoOnDgramSent           0000000000018288 f   DxeUpdIoLib:DxeUdpIoLib.obj
 0001:000072a4       UdpIoRecycleDgram          00000000000182a4 f   DxeUpdIoLib:DxeUdpIoLib.obj
 0001:000072f8       UdpIoOnDgramRcvdDpc        00000000000182f8 f   DxeUpdIoLib:DxeUdpIoLib.obj
 0001:00007574       UdpIoOnDgramRcvd           0000000000018574 f   DxeUpdIoLib:DxeUdpIoLib.obj
 0001:00007590       UdpIoCreateRxToken         0000000000018590 f   DxeUpdIoLib:DxeUdpIoLib.obj
 0001:00007660       UdpIoCreateTxToken         0000000000018660 f   DxeUpdIoLib:DxeUdpIoLib.obj
 0001:000078bc       UdpIoCreateIo              00000000000188bc f   DxeUpdIoLib:DxeUdpIoLib.obj
 0001:00007a2c       UdpIoCancelDgrams          0000000000018a2c f   DxeUpdIoLib:DxeUdpIoLib.obj
 0001:00007aa8       UdpIoFreeIo                0000000000018aa8 f   DxeUpdIoLib:DxeUdpIoLib.obj
 0001:00007bc4       UdpIoSendDatagram          0000000000018bc4 f   DxeUpdIoLib:DxeUdpIoLib.obj
 0001:00007c88       UdpIoRecvDatagram          0000000000018c88 f   DxeUpdIoLib:DxeUdpIoLib.obj
 0001:00007d48       InternalReportStatusCode   0000000000018d48 f   DxeReportStatusCodeLib:ReportStatusCodeLib.obj
 0001:00007e10       ReportStatusCodeEx         0000000000018e10 f   DxeReportStatusCodeLib:ReportStatusCodeLib.obj
 0001:00007fe4       ReadUnaligned64            0000000000018fe4 f   BaseLib:Unaligned.obj
 0002:00000000       ??_C@_0CB@DMEJJJHA@?6ASSERT_EFI_ERROR?5?$CIStatus?5?$DN?5?$CFr?$CJ@ 000000000001a000     UefiDriverEntryPoint:DriverEntryPoint.obj
 0002:00000028       ??_C@_0BE@DCHLEIGN@?$CBEFI_ERROR?5?$CIStatus?$CJ@ 000000000001a028     UefiDriverEntryPoint:DriverEntryPoint.obj
 0002:00000040       ??_C@_0DP@IIJLMAMA@c?3?2edk2?2MdePkg?2Library?2UefiDriv@ 000000000001a040     UefiDriverEntryPoint:DriverEntryPoint.obj
 0002:00000080       _gDriverUnloadImageCount   000000000001a080     Mtftp4Dxe:AutoGen.obj
 0002:00000081       _gPcd_FixedAtBuild_PcdReportStatusCodePropertyMask 000000000001a081     Mtftp4Dxe:AutoGen.obj
 0002:00000082       _gPcd_FixedAtBuild_PcdComponentNameDisable 000000000001a082     Mtftp4Dxe:AutoGen.obj
 0002:00000083       _gPcd_FixedAtBuild_PcdDebugPropertyMask 000000000001a083     Mtftp4Dxe:AutoGen.obj
 0002:00000084       _gUefiDriverRevision       000000000001a084     Mtftp4Dxe:AutoGen.obj
 0002:00000088       _gPcd_FixedAtBuild_PcdMaximumLinkedListLength 000000000001a088     Mtftp4Dxe:AutoGen.obj
 0002:0000008c       _gPcd_FixedAtBuild_PcdMaximumUnicodeStringLength 000000000001a08c     Mtftp4Dxe:AutoGen.obj
 0002:00000090       _gPcd_FixedAtBuild_PcdDebugPrintErrorLevel 000000000001a090     Mtftp4Dxe:AutoGen.obj
 0002:00000094       _gPcd_FixedAtBuild_PcdFixedDebugPrintErrorLevel 000000000001a094     Mtftp4Dxe:AutoGen.obj
 0002:00000098       gEfiCallerBaseName         000000000001a098     Mtftp4Dxe:AutoGen.obj
 0002:000000a0       _gPcd_FixedAtBuild_PcdMaximumAsciiStringLength 000000000001a0a0     Mtftp4Dxe:AutoGen.obj
 0002:000000a4       _gPcd_FixedAtBuild_PcdComponentName2Disable 000000000001a0a4     Mtftp4Dxe:AutoGen.obj
 0002:000000a5       _gPcd_FixedAtBuild_PcdVerifyNodeInList 000000000001a0a5     Mtftp4Dxe:AutoGen.obj
 0002:000000a8       gMtftp4ServiceBindingTemplete 000000000001a0a8     Mtftp4Dxe:Mtftp4Driver.obj
 0002:000000b8       mUefiDevicePathLibEndDevicePath 000000000001a0b8     UefiDevicePathLibDevicePathProtocol:UefiDevicePathLib.obj
 0002:000000c0       mStatusString              000000000001a0c0     BasePrintLib:PrintLibInternal.obj
 0002:00000200       mHexStr                    000000000001a200     BasePrintLib:PrintLibInternal.obj
 0002:00000210       gIp4AllMasks               000000000001a210     DxeNetLib:DxeNetLib.obj
 0002:00000298       ??_C@_09NNEAKOKD@Mtftp4Dxe@ 000000000001a298     Mtftp4Dxe:AutoGen.obj
 0002:000002b0       ??_C@_0GK@KGFNJGJD@c?3?2edk2?2Build?2NT32X64?2DEBUG_VS2@ 000000000001a2b0     Mtftp4Dxe:AutoGen.obj
 0002:00000320       ??_C@_0BI@PGDPJJMD@MtftpSb?5?$CB?$DN?5?$CI?$CIvoid?5?$CK?$CJ?50?$CJ@ 000000000001a320     Mtftp4Dxe:Mtftp4Driver.obj
 0002:00000340       ??_C@_0EA@OCLNHNKN@c?3?2edk2?2MdeModulePkg?2Universal?2@ 000000000001a340     Mtftp4Dxe:Mtftp4Driver.obj
 0002:00000380       ??_C@_0BF@NDBIKIKC@CR?5has?5Bad?5Signature@ 000000000001a380     Mtftp4Dxe:Mtftp4Driver.obj
 0002:00000398       ??_C@_05IIBPGMLM@octet@    000000000001a398     Mtftp4Dxe:Mtftp4Support.obj
 0002:000003a0       ??_C@_0BH@CELONLOG@Packet?5?$CB?$DN?5?$CI?$CIvoid?5?$CK?$CJ?50?$CJ@ 000000000001a3a0     Mtftp4Dxe:Mtftp4Support.obj
 0002:000003c0       ??_C@_0EB@DKALGABN@c?3?2edk2?2MdeModulePkg?2Universal?2@ 000000000001a3c0     Mtftp4Dxe:Mtftp4Support.obj
 0002:00000408       ??_C@_0BK@HKKHMKDC@TftpError?5?$CB?$DN?5?$CI?$CIvoid?5?$CK?$CJ?50?$CJ@ 000000000001a408     Mtftp4Dxe:Mtftp4Support.obj
 0002:00000428       ??_C@_0BH@IACGKAP@Buffer?5?$CB?$DN?5?$CI?$CIvoid?5?$CK?$CJ?50?$CJ@ 000000000001a428     Mtftp4Dxe:Mtftp4Support.obj
 0002:00000440       ??_C@_0CF@BCHILIEH@Instance?9?$DOLastPacket?5?$CB?$DN?5?$CI?$CIvoid?5@ 000000000001a440     Mtftp4Dxe:Mtftp4Support.obj
 0002:00000468       ??_C@_0CG@ODHLEDGE@User?5aborted?5the?5transfer?5in?5ti@ 000000000001a468     Mtftp4Dxe:Mtftp4Support.obj
 0002:00000490       ??_C@_03LKLGDMJI@eng@      000000000001a490     Mtftp4Dxe:ComponentName.obj
 0002:00000494       ??_C@_02LFNMGJAP@en@       000000000001a494     Mtftp4Dxe:ComponentName.obj
 0002:00000498       ??_C@_06DALJLGPG@eng?$DLen@ 000000000001a498     Mtftp4Dxe:ComponentName.obj
 0002:000004a0       ??_C@_1CO@GPCJBEAK@?$AAM?$AAT?$AAF?$AAT?$AAP?$AA4?$AA?5?$AAN?$AAe?$AAt?$AAw?$AAo?$AAr?$AAk?$AA?5@ 000000000001a4a0     Mtftp4Dxe:ComponentName.obj
 0002:000004d0       ??_C@_1FM@CAKBCEDC@?$AAM?$AAT?$AAF?$AAT?$AAP?$AAv?$AA4?$AA?5?$AA?$CI?$AAS?$AAe?$AAr?$AAv?$AAe?$AAr@ 000000000001a4d0     Mtftp4Dxe:ComponentName.obj
 0002:00000530       ??_C@_0CG@FAKONFNI@Instance?9?$DOUnicastPort?5?$CB?$DN?5?$CI?$CIvoid@ 000000000001a530     Mtftp4Dxe:Mtftp4Impl.obj
 0002:00000558       ??_C@_0DO@DFCNAFNM@c?3?2edk2?2MdeModulePkg?2Universal?2@ 000000000001a558     Mtftp4Dxe:Mtftp4Impl.obj
 0002:00000598       ??_C@_0CE@BEFPKLDG@TFTP?5error?5code?51?5?$CIFile?5Not?5Fou@ 000000000001a598     Mtftp4Dxe:Mtftp4Impl.obj
 0002:000005c0       ??_C@_0BE@MCLPEDGK@TFTP?5error?5code?5?$CFd?6@ 000000000001a5c0     Mtftp4Dxe:Mtftp4Impl.obj
 0002:000005d8       ??_C@_0CD@BNABBBLB@Instance?9?$DOConfig?4UseDefaultSett@ 000000000001a5d8     Mtftp4Dxe:Mtftp4Impl.obj
 0002:00000600       ??_C@_07JPIGAOKK@blksize@  000000000001a600     Mtftp4Dxe:Mtftp4Option.obj
 0002:00000608       ??_C@_07DDHNKDGP@timeout@  000000000001a608     Mtftp4Dxe:Mtftp4Option.obj
 0002:00000610       ??_C@_05GHDOEBHJ@tsize@    000000000001a610     Mtftp4Dxe:Mtftp4Option.obj
 0002:00000618       ??_C@_09HCCMHGIN@multicast@ 000000000001a618     Mtftp4Dxe:Mtftp4Option.obj
 0002:00000628       ??_C@_0DB@IHFIEEBE@?$CIStr1?5?$CB?$DN?5?$CI?$CIvoid?5?$CK?$CJ?50?$CJ?$CJ?5?$CG?$CG?5?$CIStr2@ 000000000001a628     Mtftp4Dxe:Mtftp4Option.obj
 0002:00000660       ??_C@_0EA@IGDLFJML@c?3?2edk2?2MdeModulePkg?2Universal?2@ 000000000001a660     Mtftp4Dxe:Mtftp4Option.obj
 0002:000006a0       ??_C@_0BE@LNIAOOBG@Str?5?$CB?$DN?5?$CI?$CIvoid?5?$CK?$CJ?50?$CJ@ 000000000001a6a0     Mtftp4Dxe:Mtftp4Option.obj
 0002:000006b8       ??_C@_0BL@KMGFKHL@OptionList?5?$CB?$DN?5?$CI?$CIvoid?5?$CK?$CJ?50?$CJ@ 000000000001a6b8     Mtftp4Dxe:Mtftp4Option.obj
 0002:000006d8       ??_C@_0BE@BIFEMHAL@Ack?5?$CB?$DN?5?$CI?$CIvoid?5?$CK?$CJ?50?$CJ@ 000000000001a6d8     Mtftp4Dxe:Mtftp4Rrq.obj
 0002:000006f0       ??_C@_0DN@EJMCOLEC@c?3?2edk2?2MdeModulePkg?2Universal?2@ 000000000001a6f0     Mtftp4Dxe:Mtftp4Rrq.obj
 0002:00000730       ??_C@_0BG@CPAIKJEI@User?5aborted?5download@ 000000000001a730     Mtftp4Dxe:Mtftp4Rrq.obj
 0002:00000748       ??_C@_0CI@NEMIAECC@User?5provided?5memory?5block?5is?5t@ 000000000001a748     Mtftp4Dxe:Mtftp4Rrq.obj
 0002:00000770       ??_C@_0O@ICPKLDPO@Expected?5?$DO?$DN?50@ 000000000001a770     Mtftp4Dxe:Mtftp4Rrq.obj
 0002:00000780       ??_C@_0P@HKKEKCHH@Expected?5?$CB?$DN?5?91@ 000000000001a780     Mtftp4Dxe:Mtftp4Rrq.obj
 0002:00000790       ??_C@_0BJ@BAJAABBN@Mal?9formated?5OACK?5packet@ 000000000001a790     Mtftp4Dxe:Mtftp4Rrq.obj
 0002:000007b0       ??_C@_0BK@ODIAGILP@Illegal?5multicast?5setting@ 000000000001a7b0     Mtftp4Dxe:Mtftp4Rrq.obj
 0002:000007d0       ??_C@_0DE@KILPILGA@Failed?5to?5create?5socket?5to?5rece@ 000000000001a7d0     Mtftp4Dxe:Mtftp4Rrq.obj
 0002:00000810       ??_C@_0HD@LADLNNEF@?$CI?$CIInstance?$CJ?5?$CB?$DN?5?$CI?$CIvoid?5?$CK?$CJ?50?$CJ?$CJ?5?$CG?$CG@ 000000000001a810     Mtftp4Dxe:Mtftp4Rrq.obj
 0002:00000888       ??_C@_0BK@NCMKJKO@UdpPacket?5?$CB?$DN?5?$CI?$CIvoid?5?$CK?$CJ?50?$CJ@ 000000000001a888     Mtftp4Dxe:Mtftp4Rrq.obj
 0002:000008a8       ??_C@_0BK@PPGAGDKK@User?5aborted?5the?5transfer@ 000000000001a8a8     Mtftp4Dxe:Mtftp4Rrq.obj
 0002:000008c8       ??_C@_0DN@BJAPHKPB@c?3?2edk2?2MdeModulePkg?2Universal?2@ 000000000001a8c8     Mtftp4Dxe:Mtftp4Wrq.obj
 0002:00000908       ??_C@_0BJ@PPEJMHNI@Instance?9?$DOLastBlock?5?$DO?$DN?51@ 000000000001a908     Mtftp4Dxe:Mtftp4Wrq.obj
 0002:00000928       ??_C@_0DL@MGLNHLJJ@Block?5number?5rolls?5back?0?5not?5su@ 000000000001a928     Mtftp4Dxe:Mtftp4Wrq.obj
 0002:00000968       ??_C@_0BF@NJNGJMPC@List?5?$CB?$DN?5?$CI?$CIvoid?5?$CK?$CJ?50?$CJ@ 000000000001a968     BaseLib:LinkedList.obj
 0002:00000980       ??_C@_0CM@FDGEGMJJ@c?3?2edk2?2MdePkg?2Library?2BaseLib?2@ 000000000001a980     BaseLib:LinkedList.obj
 0002:000009b0       ??_C@_0CC@KDLPLAED@List?9?$DOForwardLink?5?$CB?$DN?5?$CI?$CIvoid?5?$CK?$CJ?5@ 000000000001a9b0     BaseLib:LinkedList.obj
 0002:000009d8       ??_C@_0BP@IJJCCMAK@List?9?$DOBackLink?5?$CB?$DN?5?$CI?$CIvoid?5?$CK?$CJ?50?$CJ@ 000000000001a9d8     BaseLib:LinkedList.obj
 0002:000009f8       ??_C@_0BJ@NJABNCDK@ListHead?5?$CB?$DN?5?$CI?$CIvoid?5?$CK?$CJ?50?$CJ@ 000000000001a9f8     BaseLib:LinkedList.obj
 0002:00000a18       ??_C@_0CG@LGIALJFK@InternalBaseLibIsListValid?5?$CILis@ 000000000001aa18     BaseLib:LinkedList.obj
 0002:00000a40       ??_C@_0CC@JLDICICM@InternalBaseLibIsListValid?5?$CILis@ 000000000001aa40     BaseLib:LinkedList.obj
 0002:00000a68       ??_C@_0BF@NMBJJECB@?$CBIsListEmpty?5?$CIEntry?$CJ@ 000000000001aa68     BaseLib:LinkedList.obj
 0002:00000a80       ??_C@_0CI@BEFOLLLE@c?3?2edk2?2MdePkg?2Library?2BaseLib?2@ 000000000001aa80     BaseLib:String.obj
 0002:00000aa8       ??_C@_0BH@MAAHKCPC@String?5?$CB?$DN?5?$CI?$CIvoid?5?$CK?$CJ?50?$CJ@ 000000000001aaa8     BaseLib:String.obj
 0002:00000ac0       ??_C@_0CD@BDCLIGHD@?$CI?$CIUINTN?$CJ?5String?5?$CG?50x00000001?$CJ?5?$DN@ 000000000001aac0     BaseLib:String.obj
 0002:00000ae8       ??_C@_0DK@EOJCOAME@Length?5?$DM?5_gPcd_FixedAtBuild_Pcd@ 000000000001aae8     BaseLib:String.obj
 0002:00000b28       ??_C@_0DJ@JJHGIFMP@Length?5?$DM?$DN?5_gPcd_FixedAtBuild_Pc@ 000000000001ab28     BaseLib:String.obj
 0002:00000b68       ??_C@_0DI@MDIKFADO@Length?5?$DM?5_gPcd_FixedAtBuild_Pcd@ 000000000001ab68     BaseLib:String.obj
 0002:00000ba0       ??_C@_0BL@IKFBNFIL@AsciiStrSize?5?$CIFirstString?$CJ@ 000000000001aba0     BaseLib:String.obj
 0002:00000bc0       ??_C@_0BM@EDNOKLLE@AsciiStrSize?5?$CISecondString?$CJ@ 000000000001abc0     BaseLib:String.obj
 0002:00000be0       ??_C@_0CM@GBAFEFEA@c?3?2edk2?2MdePkg?2Library?2BaseLib?2@ 000000000001abe0     BaseLib:SafeString.obj
 0002:00000c10       ??_C@_0BO@ECNIOIHG@?$CIDestination?5?$CB?$DN?5?$CI?$CIvoid?5?$CK?$CJ?50?$CJ?$CJ@ 000000000001ac10     BaseLib:SafeString.obj
 0002:00000c30       ??_C@_0BJ@EAEEJIP@?$CISource?5?$CB?$DN?5?$CI?$CIvoid?5?$CK?$CJ?50?$CJ?$CJ@ 000000000001ac30     BaseLib:SafeString.obj
 0002:00000c50       ??_C@_0P@PMIMLIHM@?$CIDestMax?5?$CB?$DN?50?$CJ@ 000000000001ac50     BaseLib:SafeString.obj
 0002:00000c60       ??_C@_0BG@EEGIIOKH@?$CIDestMax?5?$DO?5SourceLen?$CJ@ 000000000001ac60     BaseLib:SafeString.obj
 0002:00000c78       ??_C@_0BJ@CNKJJNE@?$CIBuffer?5?$CB?$DN?5?$CI?$CIvoid?5?$CK?$CJ?50?$CJ?$CJ@ 000000000001ac78     BaseLib:SafeString.obj
 0002:00000c98       ??_C@_0DO@LJFOOPII@?$CIDestMax?5?$DM?$DN?5?$CI_gPcd_FixedAtBuild@ 000000000001ac98     BaseLib:SafeString.obj
 0002:00000ce0       ??_C@_0FL@CDANCHFO@InternalSafeStringNoAsciiStrOve@ 000000000001ace0     BaseLib:SafeString.obj
 0002:00000d40       ??_C@_0N@KGHEHMDL@Divisor?5?$CB?$DN?50@ 000000000001ad40     BaseLib:DivU64x32.obj
 0002:00000d50       ??_C@_0ED@MKGCMJG@?$CILength?5?9?51?$CJ?5?$DM?$DN?5?$CI0xFFFFFFFFFFFF@ 000000000001ad50     BaseMemoryLibOptDxe:CopyMemWrapper.obj
 0002:00000d98       ??_C@_0DM@DBGKHDAI@c?3?2edk2?2MdePkg?2Library?2BaseMemo@ 000000000001ad98     BaseMemoryLibOptDxe:CopyMemWrapper.obj
 0002:00000dd8       ??_C@_0DO@MAOBOFEG@?$CILength?5?9?51?$CJ?5?$DM?$DN?5?$CI0xFFFFFFFFFFFF@ 000000000001add8     BaseMemoryLibOptDxe:CopyMemWrapper.obj
 0002:00000e18       ??_C@_0DM@IFMIBCMP@c?3?2edk2?2MdePkg?2Library?2BaseMemo@ 000000000001ae18     BaseMemoryLibOptDxe:ZeroMemWrapper.obj
 0002:00000e58       ??_C@_0DG@EEENIGGL@Length?5?$DM?$DN?5?$CI0xFFFFFFFFFFFFFFFFUL@ 000000000001ae58     BaseMemoryLibOptDxe:ZeroMemWrapper.obj
 0002:00000e90       ??_C@_0DP@CPGOBMAI@c?3?2edk2?2MdePkg?2Library?2BaseMemo@ 000000000001ae90     BaseMemoryLibOptDxe:CompareMemWrapper.obj
 0002:00000ed0       ??_C@_0BN@MDMCNBCC@SourceBuffer?5?$CB?$DN?5?$CI?$CIvoid?5?$CK?$CJ?50?$CJ@ 000000000001aed0     BaseMemoryLibOptDxe:CompareMemWrapper.obj
 0002:00000ef0       ??_C@_0BH@LKMBFCBF@Format?5?$CB?$DN?5?$CI?$CIvoid?5?$CK?$CJ?50?$CJ@ 000000000001aef0     PeiDxeDebugLibReportStatusCode:DebugLib.obj
 0002:00000f10       ??_C@_0EH@EMGPELNE@c?3?2edk2?2MdeModulePkg?2Library?2Pe@ 000000000001af10     PeiDxeDebugLibReportStatusCode:DebugLib.obj
 0002:00000f58       ??_C@_0CI@HIINONDG@?$CICHAR8?5?$CK?$CJBaseListMarker?5?$DM?$DN?5Form@ 000000000001af58     PeiDxeDebugLibReportStatusCode:DebugLib.obj
 0002:00000f80       ??_C@_01OHGJGJJP@?$FL@     000000000001af80     PeiDxeDebugLibReportStatusCode:DebugLib.obj
 0002:00000f84       ??_C@_02PBFOLPKM@?$FN?5@   000000000001af84     PeiDxeDebugLibReportStatusCode:DebugLib.obj
 0002:00000f90       ??_C@_0EF@NBCCMJKB@c?3?2edk2?2MdePkg?2Library?2UefiMemo@ 000000000001af90     UefiMemoryAllocationLib:MemoryAllocationLib.obj
 0002:00000fd8       ??_C@_0DP@CGKEPFGH@AllocationSize?5?$DM?$DN?5?$CI0xFFFFFFFFFF@ 000000000001afd8     UefiMemoryAllocationLib:MemoryAllocationLib.obj
 0002:00001018       ??_C@_0BN@COECPDCC@gImageHandle?5?$CB?$DN?5?$CI?$CIvoid?5?$CK?$CJ?50?$CJ@ 000000000001b018     UefiBootServicesTableLib:UefiBootServicesTableLib.obj
 0002:00001040       ??_C@_0EL@ODFJBOBF@c?3?2edk2?2MdePkg?2Library?2UefiBoot@ 000000000001b040     UefiBootServicesTableLib:UefiBootServicesTableLib.obj
 0002:00001090       ??_C@_0BE@DGNHAHIL@gST?5?$CB?$DN?5?$CI?$CIvoid?5?$CK?$CJ?50?$CJ@ 000000000001b090     UefiBootServicesTableLib:UefiBootServicesTableLib.obj
 0002:000010a8       ??_C@_0BE@BDFJLGLN@gBS?5?$CB?$DN?5?$CI?$CIvoid?5?$CK?$CJ?50?$CJ@ 000000000001b0a8     UefiBootServicesTableLib:UefiBootServicesTableLib.obj
 0002:000010c0       ??_C@_0CI@BGLNHBLM@?$CI?$CI?$CIUINTN?$CJ?5?$CIStartOfBuffer?$CJ?$CJ?5?$CG?50x@ 000000000001b0c0     BasePrintLib:PrintLib.obj
 0002:000010e8       ??_C@_0CP@FCAPPOBN@c?3?2edk2?2MdePkg?2Library?2BasePrin@ 000000000001b0e8     BasePrintLib:PrintLib.obj
 0002:00001118       ??_C@_0CH@KJLBGOBB@?$CI?$CI?$CIUINTN?$CJ?5?$CIFormatString?$CJ?$CJ?5?$CG?50x0@ 000000000001b118     BasePrintLib:PrintLib.obj
 0002:00001140       ??_C@_07PBILKAFL@Success@  000000000001b140     BasePrintLib:PrintLibInternal.obj
 0002:00001148       ??_C@_0BG@CFJMNNJK@Warning?5Unknown?5Glyph@ 000000000001b148     BasePrintLib:PrintLibInternal.obj
 0002:00001160       ??_C@_0BH@GKKCJEPJ@Warning?5Delete?5Failure@ 000000000001b160     BasePrintLib:PrintLibInternal.obj
 0002:00001178       ??_C@_0BG@ECIJMOED@Warning?5Write?5Failure@ 000000000001b178     BasePrintLib:PrintLibInternal.obj
 0002:00001190       ??_C@_0BJ@ODIPDGHB@Warning?5Buffer?5Too?5Small@ 000000000001b190     BasePrintLib:PrintLibInternal.obj
 0002:000011b0       ??_C@_0BD@IFJNJCCO@Warning?5Stale?5Data@ 000000000001b1b0     BasePrintLib:PrintLibInternal.obj
 0002:000011c8       ??_C@_0L@PLPBEPPC@Load?5Error@ 000000000001b1c8     BasePrintLib:PrintLibInternal.obj
 0002:000011d8       ??_C@_0BC@HOFHKGJN@Invalid?5Parameter@ 000000000001b1d8     BasePrintLib:PrintLibInternal.obj
 0002:000011f0       ??_C@_0M@BEECMOIL@Unsupported@ 000000000001b1f0     BasePrintLib:PrintLibInternal.obj
 0002:00001200       ??_C@_0BA@FLNMPMCF@Bad?5Buffer?5Size@ 000000000001b200     BasePrintLib:PrintLibInternal.obj
 0002:00001210       ??_C@_0BB@EGELJFOB@Buffer?5Too?5Small@ 000000000001b210     BasePrintLib:PrintLibInternal.obj
 0002:00001228       ??_C@_09NKFGCIPN@Not?5Ready@ 000000000001b228     BasePrintLib:PrintLibInternal.obj
 0002:00001238       ??_C@_0N@HHEABDHO@Device?5Error@ 000000000001b238     BasePrintLib:PrintLibInternal.obj
 0002:00001248       ??_C@_0BA@LNEDDFNB@Write?5Protected@ 000000000001b248     BasePrintLib:PrintLibInternal.obj
 0002:00001258       ??_C@_0BB@GOILNEAA@Out?5of?5Resources@ 000000000001b258     BasePrintLib:PrintLibInternal.obj
 0002:00001270       ??_C@_0P@EIOJGIF@Volume?5Corrupt@ 000000000001b270     BasePrintLib:PrintLibInternal.obj
 0002:00001280       ??_C@_0M@HDLEPOFA@Volume?5Full@ 000000000001b280     BasePrintLib:PrintLibInternal.obj
 0002:00001290       ??_C@_08KEGAJDNN@No?5Media@ 000000000001b290     BasePrintLib:PrintLibInternal.obj
 0002:000012a0       ??_C@_0O@JNCJKCCD@Media?5changed@ 000000000001b2a0     BasePrintLib:PrintLibInternal.obj
 0002:000012b0       ??_C@_09CFCBFJND@Not?5Found@ 000000000001b2b0     BasePrintLib:PrintLibInternal.obj
 0002:000012c0       ??_C@_0O@NFHOBIDO@Access?5Denied@ 000000000001b2c0     BasePrintLib:PrintLibInternal.obj
 0002:000012d0       ??_C@_0M@ENKCBFEP@No?5Response@ 000000000001b2d0     BasePrintLib:PrintLibInternal.obj
 0002:000012e0       ??_C@_0L@IFPBNFC@No?5mapping@ 000000000001b2e0     BasePrintLib:PrintLibInternal.obj
 0002:000012f0       ??_C@_08PAFJCNGP@Time?5out@ 000000000001b2f0     BasePrintLib:PrintLibInternal.obj
 0002:00001300       ??_C@_0M@DCJFAFHJ@Not?5started@ 000000000001b300     BasePrintLib:PrintLibInternal.obj
 0002:00001310       ??_C@_0BA@IGIBFFPH@Already?5started@ 000000000001b310     BasePrintLib:PrintLibInternal.obj
 0002:00001320       ??_C@_07LCKDCBKK@Aborted@  000000000001b320     BasePrintLib:PrintLibInternal.obj
 0002:00001328       ??_C@_0L@LKIFCMNO@ICMP?5Error@ 000000000001b328     BasePrintLib:PrintLibInternal.obj
 0002:00001338       ??_C@_0L@DJKNJKHM@TFTP?5Error@ 000000000001b338     BasePrintLib:PrintLibInternal.obj
 0002:00001348       ??_C@_0P@NCJHBCLM@Protocol?5Error@ 000000000001b348     BasePrintLib:PrintLibInternal.obj
 0002:00001358       ??_C@_0BF@EHOBGFMI@Incompatible?5Version@ 000000000001b358     BasePrintLib:PrintLibInternal.obj
 0002:00001370       ??_C@_0BD@KHMPCIOG@Security?5Violation@ 000000000001b370     BasePrintLib:PrintLibInternal.obj
 0002:00001388       ??_C@_09BOMAGJEG@CRC?5Error@ 000000000001b388     BasePrintLib:PrintLibInternal.obj
 0002:00001398       ??_C@_0N@JEJDHPO@End?5of?5Media@ 000000000001b398     BasePrintLib:PrintLibInternal.obj
 0002:000013a8       ??_C@_0O@NMJOLAMF@Reserved?5?$CI29?$CJ@ 000000000001b3a8     BasePrintLib:PrintLibInternal.obj
 0002:000013b8       ??_C@_0O@GLPDOMCP@Reserved?5?$CI30?$CJ@ 000000000001b3b8     BasePrintLib:PrintLibInternal.obj
 0002:000013c8       ??_C@_0M@FKGOBENP@End?5of?5File@ 000000000001b3c8     BasePrintLib:PrintLibInternal.obj
 0002:000013d8       ??_C@_0BB@KFJAMCOC@Invalid?5Language@ 000000000001b3d8     BasePrintLib:PrintLibInternal.obj
 0002:000013f0       ??_C@_0BB@MFGDFIJM@Compromised?5Data@ 000000000001b3f0     BasePrintLib:PrintLibInternal.obj
 0002:00001408       ??_C@_0DH@DJIHJFON@c?3?2edk2?2MdePkg?2Library?2BasePrin@ 000000000001b408     BasePrintLib:PrintLibInternal.obj
 0002:00001440       ??_C@_0EB@HDGIDCIO@?$CIBufferSize?5?$DM?$DN?5?$CI_gPcd_FixedAtBu@ 000000000001b440     BasePrintLib:PrintLibInternal.obj
 0002:00001488       ??_C@_0BJ@PPAKKDJG@?$CIFormat?5?$CB?$DN?5?$CI?$CIvoid?5?$CK?$CJ?50?$CJ?$CJ@ 000000000001b488     BasePrintLib:PrintLibInternal.obj
 0002:000014b0       ??_C@_0ED@LPDDCECB@?$CIBufferSize?5?$DM?$DN?5?$CI_gPcd_FixedAtBu@ 000000000001b4b0     BasePrintLib:PrintLibInternal.obj
 0002:00001500       ??_C@_0IM@BFJJFLGB@?$CIStrnLenS?5?$CI?$CICHAR16?5?$CK?$CJFormat?0?5?$CI_@ 000000000001b500     BasePrintLib:PrintLibInternal.obj
 0002:00001590       ??_C@_0ID@PLGJGION@?$CIAsciiStrnLenS?5?$CIFormat?0?5?$CI_gPcd_@ 000000000001b590     BasePrintLib:PrintLibInternal.obj
 0002:00001618       ??_C@_0O@MLOLIMFM@?$DMnull?5string?$DO@ 000000000001b618     BasePrintLib:PrintLibInternal.obj
 0002:00001628       ??_C@_0M@BJJDNPHK@?$DMnull?5guid?$DO@ 000000000001b628     BasePrintLib:PrintLibInternal.obj
 0002:00001638       ??_C@_0DB@PMLHLBMO@?$CF08x?9?$CF04x?9?$CF04x?9?$CF02x?$CF02x?9?$CF02x?$CF02@ 000000000001b638     BasePrintLib:PrintLibInternal.obj
 0002:00001670       ??_C@_0M@LHGBCIKM@?$DMnull?5time?$DO@ 000000000001b670     BasePrintLib:PrintLibInternal.obj
 0002:00001680       ??_C@_0BK@FCPKCIDD@?$CF02d?1?$CF02d?1?$CF04d?5?5?$CF02d?3?$CF02d@ 000000000001b680     BasePrintLib:PrintLibInternal.obj
 0002:0000169c       ??_C@_04JIMNDDED@?$CF08X@  000000000001b69c     BasePrintLib:PrintLibInternal.obj
 0002:000016a4       ??_C@_02PCIJFNDE@?$AN?6@   000000000001b6a4     BasePrintLib:PrintLibInternal.obj
 0002:000016a8       ??_C@_01LIIJDEN@?$AN@      000000000001b6a8     BasePrintLib:PrintLibInternal.obj
 0002:000016b0       ??_C@_0EP@BCAOHHL@c?3?2edk2?2MdePkg?2Library?2UefiDevi@ 000000000001b6b0     UefiDevicePathLibDevicePathProtocol:UefiDevicePathLib.obj
 0002:00001700       ??_C@_0DC@CNNBPJA@mDevicePathLibDevicePathUtiliti@ 000000000001b700     UefiDevicePathLibDevicePathProtocol:UefiDevicePathLib.obj
 0002:00001738       ??_C@_0BE@OBDFIHND@gRT?5?$CB?$DN?5?$CI?$CIvoid?5?$CK?$CJ?50?$CJ@ 000000000001b738     UefiRuntimeServicesTableLib:UefiRuntimeServicesTableLib.obj
 0002:00001750       ??_C@_0FB@NIMBGODD@c?3?2edk2?2MdePkg?2Library?2UefiRunt@ 000000000001b750     UefiRuntimeServicesTableLib:UefiRuntimeServicesTableLib.obj
 0002:000017a8       ??_C@_0DB@DDNPJJP@c?3?2edk2?2MdePkg?2Library?2UefiLib?2@ 000000000001b7a8     UefiLib:UefiDriverModel.obj
 0002:000017e0       ??_C@_0CK@GGFNJPAK@c?3?2edk2?2MdePkg?2Library?2DxeHobLi@ 000000000001b7e0     DxeHobLib:HobLib.obj
 0002:00001810       ??_C@_0BJ@OBFMLLDO@mHobList?5?$CB?$DN?5?$CI?$CIvoid?5?$CK?$CJ?50?$CJ@ 000000000001b810     DxeHobLib:HobLib.obj
 0002:00001830       ??_C@_0BJ@NOLLDKJB@HobStart?5?$CB?$DN?5?$CI?$CIvoid?5?$CK?$CJ?50?$CJ@ 000000000001b830     DxeHobLib:HobLib.obj
 0002:00001850       ??_C@_0BC@FEDIJHFF@?$CI?$CIBOOLEAN?$CJ?$CI0?$DN?$DN1?$CJ?$CJ@ 000000000001b850     DxeHobLib:HobLib.obj
 0002:00001868       ??_C@_1BC@DPOIABCP@?$AAE?$AAF?$AAI?$AAD?$AAe?$AAb?$AAu?$AAg@ 000000000001b868     DxeDebugPrintErrorLevelLib:DxeDebugPrintErrorLevelLib.obj
 0002:00001880       ??_C@_0DA@FEJKJGCA@c?3?2edk2?2MdeModulePkg?2Library?2Dx@ 000000000001b880     DxeDpcLib:DpcLib.obj
 0002:000018b0       ??_C@_0DD@KHCJANAG@c?3?2edk2?2MdeModulePkg?2Library?2Dx@ 000000000001b8b0     DxeNetLib:DxeNetLib.obj
 0002:000018e8       ??_C@_0N@NMJPNKHJ@NetMask?5?$CB?$DN?50@ 000000000001b8e8     DxeNetLib:DxeNetLib.obj
 0002:000018f8       ??_C@_0BE@FCBOEPIJ@Ip6?5?$CB?$DN?5?$CI?$CIvoid?5?$CK?$CJ?50?$CJ@ 000000000001b8f8     DxeNetLib:DxeNetLib.obj
 0002:00001910       ??_C@_0EG@FMMHPKDI@?$CIServiceBindingGuid?5?$CB?$DN?5?$CI?$CIvoid?5?$CK@ 000000000001b910     DxeNetLib:DxeNetLib.obj
 0002:00001958       ??_C@_0CD@PCCGAHJM@ServiceBindingGuid?5?$CB?$DN?5?$CI?$CIvoid?5?$CK?$CJ@ 000000000001b958     DxeNetLib:DxeNetLib.obj
 0002:00001980       ??_C@_0BA@MDHFKOHH@BlockOpNum?5?$DO?$DN?51@ 000000000001b980     DxeNetLib:NetBuffer.obj
 0002:00001990       ??_C@_0DD@LJAAFFGL@c?3?2edk2?2MdeModulePkg?2Library?2Dx@ 000000000001b990     DxeNetLib:NetBuffer.obj
 0002:000019c8       ??_C@_07DJKBCKNJ@Len?5?$DO?50@ 000000000001b9c8     DxeNetLib:NetBuffer.obj
 0002:000019d0       ??_C@_0BH@HKOFEGGJ@Vector?5?$CB?$DN?5?$CI?$CIvoid?5?$CK?$CJ?50?$CJ@ 000000000001b9d0     DxeNetLib:NetBuffer.obj
 0002:000019f0       ??_C@_0GP@BJHFFKHJ@?$CI?$CIVector?$CJ?5?$CB?$DN?5?$CI?$CIvoid?5?$CK?$CJ?50?$CJ?$CJ?5?$CG?$CG?5?$CI@ 000000000001b9f0     DxeNetLib:NetBuffer.obj
 0002:00001a60       ??_C@_0BD@DIPGLBBO@Vector?9?$DORefCnt?5?$DO?50@ 000000000001ba60     DxeNetLib:NetBuffer.obj
 0002:00001a78       ??_C@_0BF@LJMLDKHP@Nbuf?5?$CB?$DN?5?$CI?$CIvoid?5?$CK?$CJ?50?$CJ@ 000000000001ba78     DxeNetLib:NetBuffer.obj
 0002:00001a90       ??_C@_0GL@IFMHLCLE@?$CI?$CINbuf?$CJ?5?$CB?$DN?5?$CI?$CIvoid?5?$CK?$CJ?50?$CJ?$CJ?5?$CG?$CG?5?$CI?$CIN@ 000000000001ba90     DxeNetLib:NetBuffer.obj
 0002:00001b00       ??_C@_0BB@DOGOGLPG@Nbuf?9?$DORefCnt?5?$DO?50@ 000000000001bb00     DxeNetLib:NetBuffer.obj
 0002:00001b20       ??_C@_0HL@FGMBHKJG@?$CI?$CINbuf?9?$DOVector?$CJ?5?$CB?$DN?5?$CI?$CIvoid?5?$CK?$CJ?50?$CJ@ 000000000001bb20     DxeNetLib:NetBuffer.obj
 0002:00001ba0       ??_C@_0BJ@KIFBBHL@Index?5?$DM?5Nbuf?9?$DOBlockOpNum@ 000000000001bba0     DxeNetLib:NetBuffer.obj
 0002:00001bc0       ??_C@_0EL@JHACLFKC@?$CIExtFragment?5?$CB?$DN?5?$CI?$CIvoid?5?$CK?$CJ?50?$CJ?$CJ?5?$CG@ 000000000001bbc0     DxeNetLib:NetBuffer.obj
 0002:00001c0c       ??_C@_04IFLCJLKB@Dest@     000000000001bc0c     DxeNetLib:NetBuffer.obj
 0002:00001c18       ??_C@_0DH@PFGAEII@c?3?2edk2?2MdeModulePkg?2Library?2Dx@ 000000000001bc18     DxeUpdIoLib:DxeUdpIoLib.obj
 0002:00001c50       ??_C@_0EM@EAGAKEAM@TxToken?9?$DOSignature?5?$DN?$DN?5?$CI?$CI?$CI?8U?8?$CJ?5?$HM@ 000000000001bc50     DxeUpdIoLib:DxeUdpIoLib.obj
 0002:00001ca0       ??_C@_0EH@KJFEHACH@?$CITxToken?9?$DOUdpIo?9?$DOUdpVersion?5?$DN?$DN?5@ 000000000001bca0     DxeUpdIoLib:DxeUdpIoLib.obj
 0002:00001cf0       ??_C@_0HK@DPEALHJD@?$CIRxToken?9?$DOSignature?5?$DN?$DN?5?$CI?$CI?$CI?8U?8?$CJ?5@ 000000000001bcf0     DxeUpdIoLib:DxeUdpIoLib.obj
 0002:00001d70       ??_C@_0EH@BDFOIFDG@?$CIRxToken?9?$DOUdpIo?9?$DOUdpVersion?5?$DN?$DN?5@ 000000000001bd70     DxeUpdIoLib:DxeUdpIoLib.obj
 0002:00001db8       ??_C@_0DF@JLEKKBEN@?$CIUdpIo?9?$DOUdpVersion?5?$DN?$DN?54?$CJ?5?$HM?$HM?5?$CIUd@ 000000000001bdb8     DxeUpdIoLib:DxeUdpIoLib.obj
 0002:00001df0       ??_C@_0BK@LIEJHLLP@Configure?5?$CB?$DN?5?$CI?$CIvoid?5?$CK?$CJ?50?$CJ@ 000000000001bdf0     DxeUpdIoLib:DxeUdpIoLib.obj
 0002:00001e10       ??_C@_0EK@NEAGPEKB@c?3?2edk2?2MdeModulePkg?2Library?2Dx@ 000000000001be10     DxeReportStatusCodeLib:ReportStatusCodeLib.obj
 0002:00001e60       ??_C@_0DN@HHIHPHHB@?$CB?$CI?$CIExtendedData?5?$DN?$DN?5?$CI?$CIvoid?5?$CK?$CJ?50?$CJ@ 000000000001be60     DxeReportStatusCodeLib:ReportStatusCodeLib.obj
 0002:00001ea0       ??_C@_0DN@BBBIFINB@?$CB?$CI?$CIExtendedData?5?$CB?$DN?5?$CI?$CIvoid?5?$CK?$CJ?50?$CJ@ 000000000001bea0     DxeReportStatusCodeLib:ReportStatusCodeLib.obj
 0002:00001ee0       ??_C@_0DI@MIEIGAOH@Status?5code?5extended?5data?5is?5to@ 000000000001bee0     DxeReportStatusCodeLib:ReportStatusCodeLib.obj
 0002:00001f18       ??_C@_0CL@COEFNOFM@c?3?2edk2?2MdePkg?2Library?2BaseLib?2@ 000000000001bf18     BaseLib:Unaligned.obj
 0002:00001f48       ??_C@_0DE@PLOFBNJA@c?3?2edk2?2MdePkg?2Library?2BaseLib?2@ 000000000001bf48     BaseLib:DivU64x32Remainder.obj
 0003:00000000       gEfiLoadedImageProtocolGuid 000000000001d000     Mtftp4Dxe:AutoGen.obj
 0003:00000010       gEfiStatusCodeSpecificDataGuid 000000000001d010     Mtftp4Dxe:AutoGen.obj
 0003:00000020       gEfiDriverDiagnostics2ProtocolGuid 000000000001d020     Mtftp4Dxe:AutoGen.obj
 0003:00000030       gEfiGlobalVariableGuid     000000000001d030     Mtftp4Dxe:AutoGen.obj
 0003:00000040       gEfiStatusCodeRuntimeProtocolGuid 000000000001d040     Mtftp4Dxe:AutoGen.obj
 0003:00000050       gEfiGenericVariableGuid    000000000001d050     Mtftp4Dxe:AutoGen.obj
 0003:00000060       gEfiDriverDiagnosticsProtocolGuid 000000000001d060     Mtftp4Dxe:AutoGen.obj
 0003:00000070       gEfiMtftp4ProtocolGuid     000000000001d070     Mtftp4Dxe:AutoGen.obj
 0003:00000080       gEfiComponentName2ProtocolGuid 000000000001d080     Mtftp4Dxe:AutoGen.obj
 0003:00000090       gEfiAdapterInformationProtocolGuid 000000000001d090     Mtftp4Dxe:AutoGen.obj
 0003:000000a0       gEfiDriverConfiguration2ProtocolGuid 000000000001d0a0     Mtftp4Dxe:AutoGen.obj
 0003:000000b0       gEfiDevicePathProtocolGuid 000000000001d0b0     Mtftp4Dxe:AutoGen.obj
 0003:000000c0       gEfiSimpleNetworkProtocolGuid 000000000001d0c0     Mtftp4Dxe:AutoGen.obj
 0003:000000d0       gEfiDevicePathToTextProtocolGuid 000000000001d0d0     Mtftp4Dxe:AutoGen.obj
 0003:000000e0       gEfiUdp4ServiceBindingProtocolGuid 000000000001d0e0     Mtftp4Dxe:AutoGen.obj
 0003:000000f0       gEfiStatusCodeDataTypeDebugGuid 000000000001d0f0     Mtftp4Dxe:AutoGen.obj
 0003:00000100       gEfiIp4Config2ProtocolGuid 000000000001d100     Mtftp4Dxe:AutoGen.obj
 0003:00000110       gEfiDevicePathUtilitiesProtocolGuid 000000000001d110     Mtftp4Dxe:AutoGen.obj
 0003:00000120       gEfiDevicePathFromTextProtocolGuid 000000000001d120     Mtftp4Dxe:AutoGen.obj
 0003:00000130       gEfiUdp6ProtocolGuid       000000000001d130     Mtftp4Dxe:AutoGen.obj
 0003:00000140       gEfiSmbios3TableGuid       000000000001d140     Mtftp4Dxe:AutoGen.obj
 0003:00000150       gEfiUdp6ServiceBindingProtocolGuid 000000000001d150     Mtftp4Dxe:AutoGen.obj
 0003:00000160       gEfiSmbiosTableGuid        000000000001d160     Mtftp4Dxe:AutoGen.obj
 0003:00000170       gEfiHobListGuid            000000000001d170     Mtftp4Dxe:AutoGen.obj
 0003:00000180       gEfiAdapterInfoMediaStateGuid 000000000001d180     Mtftp4Dxe:AutoGen.obj
 0003:00000190       gEfiDriverConfigurationProtocolGuid 000000000001d190     Mtftp4Dxe:AutoGen.obj
 0003:000001a0       gEfiDebugMaskProtocolGuid  000000000001d1a0     Mtftp4Dxe:AutoGen.obj
 0003:000001b0       gEfiManagedNetworkServiceBindingProtocolGuid 000000000001d1b0     Mtftp4Dxe:AutoGen.obj
 0003:000001c0       gEfiMtftp4ServiceBindingProtocolGuid 000000000001d1c0     Mtftp4Dxe:AutoGen.obj
 0003:000001d0       gEfiDriverBindingProtocolGuid 000000000001d1d0     Mtftp4Dxe:AutoGen.obj
 0003:000001e0       gEfiUdp4ProtocolGuid       000000000001d1e0     Mtftp4Dxe:AutoGen.obj
 0003:000001f0       gEfiComponentNameProtocolGuid 000000000001d1f0     Mtftp4Dxe:AutoGen.obj
 0003:00000200       gEfiDpcProtocolGuid        000000000001d200     Mtftp4Dxe:AutoGen.obj
 0003:00000210       gEfiCallerIdGuid           000000000001d210     Mtftp4Dxe:AutoGen.obj
 0003:00000220       gEfiManagedNetworkProtocolGuid 000000000001d220     Mtftp4Dxe:AutoGen.obj
 0003:00000230       gMtftp4DriverBinding       000000000001d230     Mtftp4Dxe:Mtftp4Driver.obj
 0003:00000260       gMtftp4ComponentName2      000000000001d260     Mtftp4Dxe:ComponentName.obj
 0003:00000278       gMtftp4ComponentName       000000000001d278     Mtftp4Dxe:ComponentName.obj
 0003:00000290       mMtftp4DriverNameTable     000000000001d290     Mtftp4Dxe:ComponentName.obj
 0003:000002b0       gMtftp4ProtocolTemplate    000000000001d2b0     Mtftp4Dxe:Mtftp4Impl.obj
 0003:000002f0       mMtftp4SupportedOptions    000000000001d2f0     Mtftp4Dxe:Mtftp4Option.obj
 0003:00000310       mDebugMaskProtocol         000000000001d310     DxeDebugPrintErrorLevelLib:DxeDebugPrintErrorLevelLib.obj
 0003:00000328       mSyslogDstMac              000000000001d328     DxeNetLib:DxeNetLib.obj
 0003:00000330       mNetVlanDevicePathTemplate 000000000001d330     DxeNetLib:DxeNetLib.obj
 0003:00000338       gMtftp4ControllerNameTable 000000000001d338     Mtftp4Dxe:ComponentName.obj
 0003:00000340       gST                        000000000001d340     UefiBootServicesTableLib:UefiBootServicesTableLib.obj
 0003:00000348       gBS                        000000000001d348     UefiBootServicesTableLib:UefiBootServicesTableLib.obj
 0003:00000350       gImageHandle               000000000001d350     UefiBootServicesTableLib:UefiBootServicesTableLib.obj
 0003:00000358       mDevicePathLibDevicePathUtilities 000000000001d358     UefiDevicePathLibDevicePathProtocol:UefiDevicePathLib.obj
 0003:00000360       gRT                        000000000001d360     UefiRuntimeServicesTableLib:UefiRuntimeServicesTableLib.obj
 0003:00000368       mHobList                   000000000001d368     DxeHobLib:HobLib.obj
 0003:00000370       mSystemTable               000000000001d370     DxeDebugPrintErrorLevelLib:DxeDebugPrintErrorLevelLib.obj
 0003:00000378       mDebugPrintErrorLevel      000000000001d378     DxeDebugPrintErrorLevelLib:DxeDebugPrintErrorLevelLib.obj
 0003:0000037c       mGlobalErrorLevelInitialized 000000000001d37c     DxeDebugPrintErrorLevelLib:DxeDebugPrintErrorLevelLib.obj
 0003:00000380       mZeroIp4Addr               000000000001d380     DxeNetLib:DxeNetLib.obj
 0003:00000388       mReportStatusCodeLibStatusCodeProtocol 000000000001d388     DxeReportStatusCodeLib:ReportStatusCodeLib.obj
 0003:00000390       mDpc                       000000000001d390     <common>

 entry point at        0001:000002d0

 Static symbols

 0000:fffee000       .debug$S                   0000000000010000     Mtftp4Dxe.exp
 0001:0000001a       InternalMemCopyMem.0       000000000001101a     BaseMemoryLibOptDxe:CopyMem.obj
 0001:00000032       InternalMemCopyMem.1       0000000000011032     BaseMemoryLibOptDxe:CopyMem.obj
 0001:00000045       InternalMemCopyMem.2       0000000000011045     BaseMemoryLibOptDxe:CopyMem.obj
 0001:00000062       @CopyBackward              0000000000011062     BaseMemoryLibOptDxe:CopyMem.obj
 0001:0000006b       @CopyBytes                 000000000001106b     BaseMemoryLibOptDxe:CopyMem.obj
 0004:00000000       .edata                     000000000001e000     Mtftp4Dxe.exp
 0004:00000028       rgpv                       000000000001e028     Mtftp4Dxe.exp
 0004:0000002c       rgszName                   000000000001e02c     Mtftp4Dxe.exp
 0004:00000030       rgwOrd                     000000000001e030     Mtftp4Dxe.exp
 0004:00000032       szName                     000000000001e032     Mtftp4Dxe.exp
 0004:00000040       $N00001                    000000000001e040     Mtftp4Dxe.exp
 0005:00000000       $pdata$_ModuleEntryPoint   000000000001f000     UefiDriverEntryPoint:DriverEntryPoint.obj
 0005:0000000c       $pdata$_DriverUnloadHandler 000000000001f00c     UefiDriverEntryPoint:DriverEntryPoint.obj
 0005:00000018       $pdata$ProcessLibraryDestructorList 000000000001f018     Mtftp4Dxe:AutoGen.obj
 0005:00000024       $pdata$ProcessLibraryConstructorList 000000000001f024     Mtftp4Dxe:AutoGen.obj
 0005:00000030       $pdata$Mtftp4ServiceBindingDestroyChild 000000000001f030     Mtftp4Dxe:Mtftp4Driver.obj
 0005:0000003c       $pdata$Mtftp4ServiceBindingCreateChild 000000000001f03c     Mtftp4Dxe:Mtftp4Driver.obj
 0005:00000048       $pdata$Mtftp4DriverBindingStop 000000000001f048     Mtftp4Dxe:Mtftp4Driver.obj
 0005:00000054       $pdata$Mtftp4DestroyChildEntryInHandleBuffer 000000000001f054     Mtftp4Dxe:Mtftp4Driver.obj
 0005:00000060       $pdata$Mtftp4DriverBindingStart 000000000001f060     Mtftp4Dxe:Mtftp4Driver.obj
 0005:0000006c       $pdata$Mtftp4CreateService 000000000001f06c     Mtftp4Dxe:Mtftp4Driver.obj
 0005:00000078       $pdata$Mtftp4DriverBindingSupported 000000000001f078     Mtftp4Dxe:Mtftp4Driver.obj
 0005:00000084       $pdata$Mtftp4Retransmit    000000000001f084     Mtftp4Dxe:Mtftp4Support.obj
 0005:00000090       $pdata$Mtftp4SendPacket    000000000001f090     Mtftp4Dxe:Mtftp4Support.obj
 0005:0000009c       $pdata$Mtftp4SendError     000000000001f09c     Mtftp4Dxe:Mtftp4Support.obj
 0005:000000a8       $pdata$Mtftp4SendRequest   000000000001f0a8     Mtftp4Dxe:Mtftp4Support.obj
 0005:000000b4       $pdata$Mtftp4RemoveBlockNum 000000000001f0b4     Mtftp4Dxe:Mtftp4Support.obj
 0005:000000c0       $pdata$Mtftp4SetLastBlockNum 000000000001f0c0     Mtftp4Dxe:Mtftp4Support.obj
 0005:000000cc       $pdata$Mtftp4AllocateRange 000000000001f0cc     Mtftp4Dxe:Mtftp4Support.obj
 0005:000000d8       $pdata$Mtftp4OnTimerTick   000000000001f0d8     Mtftp4Dxe:Mtftp4Support.obj
 0005:000000e4       $pdata$Mtftp4ComponentNameGetControllerName 000000000001f0e4     Mtftp4Dxe:ComponentName.obj
 0005:000000f0       $pdata$UpdateName          000000000001f0f0     Mtftp4Dxe:ComponentName.obj
 0005:000000fc       $pdata$Mtftp4ComponentNameGetDriverName 000000000001f0fc     Mtftp4Dxe:ComponentName.obj
 0005:00000108       $pdata$EfiMtftp4Poll       000000000001f108     Mtftp4Dxe:Mtftp4Impl.obj
 0005:00000114       $pdata$EfiMtftp4GetInfo    000000000001f114     Mtftp4Dxe:Mtftp4Impl.obj
 0005:00000120       $pdata$EfiMtftp4ParseOptions 000000000001f120     Mtftp4Dxe:Mtftp4Impl.obj
 0005:0000012c       $pdata$EfiMtftp4Configure  000000000001f12c     Mtftp4Dxe:Mtftp4Impl.obj
 0005:00000138       $pdata$EfiMtftp4GetModeData 000000000001f138     Mtftp4Dxe:Mtftp4Impl.obj
 0005:00000144       $pdata$Mtftp4Start         000000000001f144     Mtftp4Dxe:Mtftp4Impl.obj
 0005:00000150       $pdata$Mtftp4ConfigUnicastPort 000000000001f150     Mtftp4Dxe:Mtftp4Impl.obj
 0005:0000015c       $pdata$Mtftp4GetMapping    000000000001f15c     Mtftp4Dxe:Mtftp4Impl.obj
 0005:00000168       $pdata$Mtftp4OverrideValid 000000000001f168     Mtftp4Dxe:Mtftp4Impl.obj
 0005:00000174       $pdata$Mtftp4GetInfoCheckPacket 000000000001f174     Mtftp4Dxe:Mtftp4Impl.obj
 0005:00000180       $pdata$Mtftp4CleanOperation 000000000001f180     Mtftp4Dxe:Mtftp4Impl.obj
 0005:0000018c       $pdata$Mtftp4ParseOptionOack 000000000001f18c     Mtftp4Dxe:Mtftp4Option.obj
 0005:00000198       $pdata$Mtftp4ExtractMcast  000000000001f198     Mtftp4Dxe:Mtftp4Option.obj
 0005:000001a4       $pdata$Mtftp4FillOptions   000000000001f1a4     Mtftp4Dxe:Mtftp4Option.obj
 0005:000001b0       $pdata$NetStringToU32      000000000001f1b0     Mtftp4Dxe:Mtftp4Option.obj
 0005:000001bc       $pdata$NetStringEqualNoCase 000000000001f1bc     Mtftp4Dxe:Mtftp4Option.obj
 0005:000001c8       $pdata$Mtftp4ParseOption   000000000001f1c8     Mtftp4Dxe:Mtftp4Option.obj
 0005:000001d4       $pdata$Mtftp4ExtractOptions 000000000001f1d4     Mtftp4Dxe:Mtftp4Option.obj
 0005:000001e0       $pdata$Mtftp4RrqInput      000000000001f1e0     Mtftp4Dxe:Mtftp4Rrq.obj
 0005:000001ec       $pdata$Mtftp4RrqHandleOack 000000000001f1ec     Mtftp4Dxe:Mtftp4Rrq.obj
 0005:000001f8       $pdata$Mtftp4RrqConfigMcastPort 000000000001f1f8     Mtftp4Dxe:Mtftp4Rrq.obj
 0005:00000204       $pdata$Mtftp4RrqHandleData 000000000001f204     Mtftp4Dxe:Mtftp4Rrq.obj
 0005:00000210       $pdata$Mtftp4RrqSaveBlock  000000000001f210     Mtftp4Dxe:Mtftp4Rrq.obj
 0005:0000021c       $pdata$Mtftp4RrqSendAck    000000000001f21c     Mtftp4Dxe:Mtftp4Rrq.obj
 0005:00000228       $pdata$Mtftp4WrqInput      000000000001f228     Mtftp4Dxe:Mtftp4Wrq.obj
 0005:00000234       $pdata$Mtftp4WrqHandleOack 000000000001f234     Mtftp4Dxe:Mtftp4Wrq.obj
 0005:00000240       $pdata$Mtftp4WrqHandleAck  000000000001f240     Mtftp4Dxe:Mtftp4Wrq.obj
 0005:0000024c       $pdata$Mtftp4WrqSendBlock  000000000001f24c     Mtftp4Dxe:Mtftp4Wrq.obj
 0005:00000258       $pdata$InsertHeadList      000000000001f258     BaseLib:LinkedList.obj
 0005:00000264       $pdata$InternalBaseLibIsListValid 000000000001f264     BaseLib:LinkedList.obj
 0005:00000270       $pdata$InitializeListHead  000000000001f270     BaseLib:LinkedList.obj
 0005:0000027c       $pdata$InsertTailList      000000000001f27c     BaseLib:LinkedList.obj
 0005:00000288       $pdata$RemoveEntryList     000000000001f288     BaseLib:LinkedList.obj
 0005:00000294       $pdata$IsListEmpty         000000000001f294     BaseLib:LinkedList.obj
 0005:000002a0       $pdata$AsciiStrnCmp        000000000001f2a0     BaseLib:String.obj
 0005:000002ac       $pdata$StrLen              000000000001f2ac     BaseLib:String.obj
 0005:000002b8       $pdata$AsciiStrLen         000000000001f2b8     BaseLib:String.obj
 0005:000002c4       $pdata$AsciiStrnCpyS       000000000001f2c4     BaseLib:SafeString.obj
 0005:000002d0       $pdata$StrnLenS            000000000001f2d0     BaseLib:SafeString.obj
 0005:000002dc       $pdata$AsciiStrCpyS        000000000001f2dc     BaseLib:SafeString.obj
 0005:000002e8       $pdata$CopyMem             000000000001f2e8     BaseMemoryLibOptDxe:CopyMemWrapper.obj
 0005:000002f4       $pdata$ZeroMem             000000000001f2f4     BaseMemoryLibOptDxe:ZeroMemWrapper.obj
 0005:00000300       $pdata$CompareMem          000000000001f300     BaseMemoryLibOptDxe:CompareMemWrapper.obj
 0005:0000030c       $pdata$CompareGuid         000000000001f30c     BaseMemoryLibOptDxe:MemLibGuid.obj
 0005:00000318       $pdata$CopyGuid            000000000001f318     BaseMemoryLibOptDxe:MemLibGuid.obj
 0005:00000324       $pdata$DebugPrint          000000000001f324     PeiDxeDebugLibReportStatusCode:DebugLib.obj
 0005:00000330       $pdata$DebugAssert         000000000001f330     PeiDxeDebugLibReportStatusCode:DebugLib.obj
 0005:0000033c       $pdata$InternalAllocateCopyPool 000000000001f33c     UefiMemoryAllocationLib:MemoryAllocationLib.obj
 0005:00000348       $pdata$InternalAllocatePool 000000000001f348     UefiMemoryAllocationLib:MemoryAllocationLib.obj
 0005:00000354       $pdata$AllocateZeroPool    000000000001f354     UefiMemoryAllocationLib:MemoryAllocationLib.obj
 0005:00000360       $pdata$FreePool            000000000001f360     UefiMemoryAllocationLib:MemoryAllocationLib.obj
 0005:0000036c       $pdata$UnicodeSPrint       000000000001f36c     BasePrintLib:PrintLib.obj
 0005:00000378       $pdata$BasePrintLibSPrint  000000000001f378     BasePrintLib:PrintLibInternal.obj
 0005:00000384       $pdata$BasePrintLibValueToString 000000000001f384     BasePrintLib:PrintLibInternal.obj
 0005:00000390       $pdata$BasePrintLibSPrintMarker 000000000001f390     BasePrintLib:PrintLibInternal.obj
 0005:0000039c       $pdata$EfiGetSystemConfigurationTable 000000000001f39c     UefiLib:UefiLib.obj
 0005:000003a8       $pdata$CompareIso639LanguageCode 000000000001f3a8     UefiLib:UefiLib.obj
 0005:000003b4       $pdata$LookupUnicodeString2 000000000001f3b4     UefiLib:UefiLib.obj
 0005:000003c0       $pdata$AddUnicodeString2   000000000001f3c0     UefiLib:UefiLib.obj
 0005:000003cc       $pdata$FreeUnicodeStringTable 000000000001f3cc     UefiLib:UefiLib.obj
 0005:000003d8       $pdata$GetNextHob          000000000001f3d8     DxeHobLib:HobLib.obj
 0005:000003e4       $pdata$GetHobList          000000000001f3e4     DxeHobLib:HobLib.obj
 0005:000003f0       $pdata$GetDebugPrintErrorLevel 000000000001f3f0     DxeDebugPrintErrorLevelLib:DxeDebugPrintErrorLevelLib.obj
 0005:000003fc       $pdata$NetLibDestroyServiceChild 000000000001f3fc     DxeNetLib:DxeNetLib.obj
 0005:00000408       $pdata$NetLibCreateServiceChild 000000000001f408     DxeNetLib:DxeNetLib.obj
 0005:00000414       $pdata$Ip6Swap128          000000000001f414     DxeNetLib:DxeNetLib.obj
 0005:00000420       $pdata$NetIp4IsUnicast     000000000001f420     DxeNetLib:DxeNetLib.obj
 0005:0000042c       $pdata$NetDestroyLinkList  000000000001f42c     DxeNetLib:DxeNetLib.obj
 0005:00000438       $pdata$NetbufBuildExt      000000000001f438     DxeNetLib:NetBuffer.obj
 0005:00000444       $pdata$NetbufFromExt       000000000001f444     DxeNetLib:NetBuffer.obj
 0005:00000450       $pdata$NetbufSetBlock      000000000001f450     DxeNetLib:NetBuffer.obj
 0005:0000045c       $pdata$NetbufFreeVector    000000000001f45c     DxeNetLib:NetBuffer.obj
 0005:00000468       $pdata$NetbufAllocStruct   000000000001f468     DxeNetLib:NetBuffer.obj
 0005:00000474       $pdata$NetbufCopy          000000000001f474     DxeNetLib:NetBuffer.obj
 0005:00000480       $pdata$NetbufAlloc         000000000001f480     DxeNetLib:NetBuffer.obj
 0005:0000048c       $pdata$NetbufAllocSpace    000000000001f48c     DxeNetLib:NetBuffer.obj
 0005:00000498       $pdata$NetbufFree          000000000001f498     DxeNetLib:NetBuffer.obj
 0005:000004a4       $pdata$NetbufGetByte       000000000001f4a4     DxeNetLib:NetBuffer.obj
 0005:000004b0       $pdata$UdpIoCancelDgrams   000000000001f4b0     DxeUpdIoLib:DxeUdpIoLib.obj
 0005:000004bc       $pdata$UdpIoCreateTxToken  000000000001f4bc     DxeUpdIoLib:DxeUdpIoLib.obj
 0005:000004c8       $pdata$UdpIoCreateRxToken  000000000001f4c8     DxeUpdIoLib:DxeUdpIoLib.obj
 0005:000004d4       $pdata$UdpIoOnDgramRcvdDpc 000000000001f4d4     DxeUpdIoLib:DxeUdpIoLib.obj
 0005:000004e0       $pdata$UdpIoRecycleDgram   000000000001f4e0     DxeUpdIoLib:DxeUdpIoLib.obj
 0005:000004ec       $pdata$UdpIoOnDgramSentDpc 000000000001f4ec     DxeUpdIoLib:DxeUdpIoLib.obj
 0005:000004f8       $pdata$UdpIoFreeRxToken    000000000001f4f8     DxeUpdIoLib:DxeUdpIoLib.obj
 0005:00000504       $pdata$UdpIoFreeTxToken    000000000001f504     DxeUpdIoLib:DxeUdpIoLib.obj
 0005:00000510       $pdata$UdpIoRecvDatagram   000000000001f510     DxeUpdIoLib:DxeUdpIoLib.obj
 0005:0000051c       $pdata$UdpIoSendDatagram   000000000001f51c     DxeUpdIoLib:DxeUdpIoLib.obj
 0005:00000528       $pdata$UdpIoCreateIo       000000000001f528     DxeUpdIoLib:DxeUdpIoLib.obj
 0005:00000534       $pdata$UdpIoFreeIo         000000000001f534     DxeUpdIoLib:DxeUdpIoLib.obj
 0005:00000540       $pdata$InternalReportStatusCode 000000000001f540     DxeReportStatusCodeLib:ReportStatusCodeLib.obj
 0005:0000054c       $pdata$ReportStatusCodeEx  000000000001f54c     DxeReportStatusCodeLib:ReportStatusCodeLib.obj
 0005:00000558       $pdata$ReadUnaligned64     000000000001f558     BaseLib:Unaligned.obj
 0006:00000000       $unwind$_DriverUnloadHandler 0000000000020000     UefiDriverEntryPoint:DriverEntryPoint.obj
 0006:00000010       $unwind$_ModuleEntryPoint  0000000000020010     UefiDriverEntryPoint:DriverEntryPoint.obj
 0006:00000024       $unwind$ProcessLibraryConstructorList 0000000000020024     Mtftp4Dxe:AutoGen.obj
 0006:0000003c       $unwind$ProcessLibraryDestructorList 000000000002003c     Mtftp4Dxe:AutoGen.obj
 0006:0000003c       $unwind$InternalAllocatePool 000000000002003c     UefiMemoryAllocationLib:MemoryAllocationLib.obj
 0006:0000003c       $unwind$GetHobList         000000000002003c     DxeHobLib:HobLib.obj
 0006:0000003c       $unwind$FreePool           000000000002003c     UefiMemoryAllocationLib:MemoryAllocationLib.obj
 0006:00000044       $unwind$Mtftp4DriverBindingSupported 0000000000020044     Mtftp4Dxe:Mtftp4Driver.obj
 0006:00000044       $unwind$Mtftp4ComponentNameGetDriverName 0000000000020044     Mtftp4Dxe:ComponentName.obj
 0006:0000004c       $unwind$Mtftp4CreateService 000000000002004c     Mtftp4Dxe:Mtftp4Driver.obj
 0006:00000068       $unwind$Mtftp4DriverBindingStart 0000000000020068     Mtftp4Dxe:Mtftp4Driver.obj
 0006:00000074       $unwind$EfiGetSystemConfigurationTable 0000000000020074     UefiLib:UefiLib.obj
 0006:00000074       $unwind$StrLen             0000000000020074     BaseLib:String.obj
 0006:00000074       $unwind$AsciiStrnCpyS      0000000000020074     BaseLib:SafeString.obj
 0006:00000074       $unwind$EfiMtftp4GetModeData 0000000000020074     Mtftp4Dxe:Mtftp4Impl.obj
 0006:00000074       $unwind$NetbufAllocStruct  0000000000020074     DxeNetLib:NetBuffer.obj
 0006:00000074       $unwind$AsciiStrnCmp       0000000000020074     BaseLib:String.obj
 0006:00000074       $unwind$Mtftp4RemoveBlockNum 0000000000020074     Mtftp4Dxe:Mtftp4Support.obj
 0006:00000074       $unwind$UdpIoRecvDatagram  0000000000020074     DxeUpdIoLib:DxeUdpIoLib.obj
 0006:00000074       $unwind$Mtftp4OnTimerTick  0000000000020074     Mtftp4Dxe:Mtftp4Support.obj
 0006:00000074       $unwind$Mtftp4SetLastBlockNum 0000000000020074     Mtftp4Dxe:Mtftp4Support.obj
 0006:00000074       $unwind$UdpIoCancelDgrams  0000000000020074     DxeUpdIoLib:DxeUdpIoLib.obj
 0006:00000074       $unwind$Mtftp4AllocateRange 0000000000020074     Mtftp4Dxe:Mtftp4Support.obj
 0006:00000074       $unwind$NetbufGetByte      0000000000020074     DxeNetLib:NetBuffer.obj
 0006:00000074       $unwind$FreeUnicodeStringTable 0000000000020074     UefiLib:UefiLib.obj
 0006:00000074       $unwind$NetbufAlloc        0000000000020074     DxeNetLib:NetBuffer.obj
 0006:00000074       $unwind$Mtftp4DestroyChildEntryInHandleBuffer 0000000000020074     Mtftp4Dxe:Mtftp4Driver.obj
 0006:00000074       $unwind$CopyGuid           0000000000020074     BaseMemoryLibOptDxe:MemLibGuid.obj
 0006:00000084       $unwind$Mtftp4DriverBindingStop 0000000000020084     Mtftp4Dxe:Mtftp4Driver.obj
 0006:000000a0       $unwind$Mtftp4ServiceBindingCreateChild 00000000000200a0     Mtftp4Dxe:Mtftp4Driver.obj
 0006:000000b8       $unwind$Mtftp4ServiceBindingDestroyChild 00000000000200b8     Mtftp4Dxe:Mtftp4Driver.obj
 0006:000000c8       $unwind$Mtftp4SendRequest  00000000000200c8     Mtftp4Dxe:Mtftp4Support.obj
 0006:000000e0       $unwind$NetbufCopy         00000000000200e0     DxeNetLib:NetBuffer.obj
 0006:000000e0       $unwind$Mtftp4SendError    00000000000200e0     Mtftp4Dxe:Mtftp4Support.obj
 0006:000000e0       $unwind$Mtftp4ExtractMcast 00000000000200e0     Mtftp4Dxe:Mtftp4Option.obj
 0006:000000f8       $unwind$Mtftp4SendPacket   00000000000200f8     Mtftp4Dxe:Mtftp4Support.obj
 0006:00000108       $unwind$Mtftp4Retransmit   0000000000020108     Mtftp4Dxe:Mtftp4Support.obj
 0006:00000114       $unwind$UpdateName         0000000000020114     Mtftp4Dxe:ComponentName.obj
 0006:0000011c       $unwind$Mtftp4ComponentNameGetControllerName 000000000002011c     Mtftp4Dxe:ComponentName.obj
 0006:00000130       $unwind$LookupUnicodeString2 0000000000020130     UefiLib:UefiLib.obj
 0006:00000130       $unwind$Mtftp4CleanOperation 0000000000020130     Mtftp4Dxe:Mtftp4Impl.obj
 0006:00000130       $unwind$Mtftp4ParseOption  0000000000020130     Mtftp4Dxe:Mtftp4Option.obj
 0006:00000148       $unwind$Mtftp4RrqSendAck   0000000000020148     Mtftp4Dxe:Mtftp4Rrq.obj
 0006:00000148       $unwind$NetbufSetBlock     0000000000020148     DxeNetLib:NetBuffer.obj
 0006:00000148       $unwind$BasePrintLibValueToString 0000000000020148     BasePrintLib:PrintLibInternal.obj
 0006:00000148       $unwind$CompareGuid        0000000000020148     BaseMemoryLibOptDxe:MemLibGuid.obj
 0006:00000148       $unwind$Mtftp4GetInfoCheckPacket 0000000000020148     Mtftp4Dxe:Mtftp4Impl.obj
 0006:00000148       $unwind$AsciiStrCpyS       0000000000020148     BaseLib:SafeString.obj
 0006:00000148       $unwind$CopyMem            0000000000020148     BaseMemoryLibOptDxe:CopyMemWrapper.obj
 0006:00000148       $unwind$NetDestroyLinkList 0000000000020148     DxeNetLib:DxeNetLib.obj
 0006:0000015c       $unwind$Mtftp4OverrideValid 000000000002015c     Mtftp4Dxe:Mtftp4Impl.obj
 0006:0000016c       $unwind$Mtftp4GetMapping   000000000002016c     Mtftp4Dxe:Mtftp4Impl.obj
 0006:00000184       $unwind$Mtftp4ConfigUnicastPort 0000000000020184     Mtftp4Dxe:Mtftp4Impl.obj
 0006:0000019c       $unwind$Mtftp4RrqHandleData 000000000002019c     Mtftp4Dxe:Mtftp4Rrq.obj
 0006:0000019c       $unwind$Mtftp4Start        000000000002019c     Mtftp4Dxe:Mtftp4Impl.obj
 0006:000001b8       $unwind$EfiMtftp4Configure 00000000000201b8     Mtftp4Dxe:Mtftp4Impl.obj
 0006:000001c8       $unwind$EfiMtftp4ParseOptions 00000000000201c8     Mtftp4Dxe:Mtftp4Impl.obj
 0006:000001c8       $unwind$RemoveEntryList    00000000000201c8     BaseLib:LinkedList.obj
 0006:000001c8       $unwind$UdpIoOnDgramSentDpc 00000000000201c8     DxeUpdIoLib:DxeUdpIoLib.obj
 0006:000001c8       $unwind$GetNextHob         00000000000201c8     DxeHobLib:HobLib.obj
 0006:000001c8       $unwind$UdpIoFreeRxToken   00000000000201c8     DxeUpdIoLib:DxeUdpIoLib.obj
 0006:000001c8       $unwind$IsListEmpty        00000000000201c8     BaseLib:LinkedList.obj
 0006:000001c8       $unwind$UdpIoRecycleDgram  00000000000201c8     DxeUpdIoLib:DxeUdpIoLib.obj
 0006:000001c8       $unwind$StrnLenS           00000000000201c8     BaseLib:SafeString.obj
 0006:000001c8       $unwind$AllocateZeroPool   00000000000201c8     UefiMemoryAllocationLib:MemoryAllocationLib.obj
 0006:000001c8       $unwind$UdpIoFreeTxToken   00000000000201c8     DxeUpdIoLib:DxeUdpIoLib.obj
 0006:000001c8       $unwind$ReadUnaligned64    00000000000201c8     BaseLib:Unaligned.obj
 0006:000001c8       $unwind$InitializeListHead 00000000000201c8     BaseLib:LinkedList.obj
 0006:000001c8       $unwind$NetbufFree         00000000000201c8     DxeNetLib:NetBuffer.obj
 0006:000001d0       $unwind$EfiMtftp4GetInfo   00000000000201d0     Mtftp4Dxe:Mtftp4Impl.obj
 0006:000001e0       $unwind$NetIp4IsUnicast    00000000000201e0     DxeNetLib:DxeNetLib.obj
 0006:000001e0       $unwind$UdpIoFreeIo        00000000000201e0     DxeUpdIoLib:DxeUdpIoLib.obj
 0006:000001e0       $unwind$InsertTailList     00000000000201e0     BaseLib:LinkedList.obj
 0006:000001e0       $unwind$EfiMtftp4Poll      00000000000201e0     Mtftp4Dxe:Mtftp4Impl.obj
 0006:000001e0       $unwind$InternalAllocateCopyPool 00000000000201e0     UefiMemoryAllocationLib:MemoryAllocationLib.obj
 0006:000001e0       $unwind$InsertHeadList     00000000000201e0     BaseLib:LinkedList.obj
 0006:000001e0       $unwind$InternalBaseLibIsListValid 00000000000201e0     BaseLib:LinkedList.obj
 0006:000001e0       $unwind$AsciiStrLen        00000000000201e0     BaseLib:String.obj
 0006:000001e0       $unwind$ZeroMem            00000000000201e0     BaseMemoryLibOptDxe:ZeroMemWrapper.obj
 0006:000001e0       $unwind$CompareIso639LanguageCode 00000000000201e0     UefiLib:UefiLib.obj
 0006:000001e0       $unwind$NetStringToU32     00000000000201e0     Mtftp4Dxe:Mtftp4Option.obj
 0006:000001e0       $unwind$NetbufFreeVector   00000000000201e0     DxeNetLib:NetBuffer.obj
 0006:000001e0       $unwind$NetStringEqualNoCase 00000000000201e0     Mtftp4Dxe:Mtftp4Option.obj
 0006:000001ec       $unwind$NetbufBuildExt     00000000000201ec     DxeNetLib:NetBuffer.obj
 0006:000001ec       $unwind$Mtftp4FillOptions  00000000000201ec     Mtftp4Dxe:Mtftp4Option.obj
 0006:000001f4       $unwind$CompareMem         00000000000201f4     BaseMemoryLibOptDxe:CompareMemWrapper.obj
 0006:000001f4       $unwind$Mtftp4ExtractOptions 00000000000201f4     Mtftp4Dxe:Mtftp4Option.obj
 0006:00000208       $unwind$Mtftp4ParseOptionOack 0000000000020208     Mtftp4Dxe:Mtftp4Option.obj
 0006:00000214       $unwind$Mtftp4RrqSaveBlock 0000000000020214     Mtftp4Dxe:Mtftp4Rrq.obj
 0006:00000214       $unwind$Mtftp4WrqInput     0000000000020214     Mtftp4Dxe:Mtftp4Wrq.obj
 0006:00000230       $unwind$Mtftp4RrqConfigMcastPort 0000000000020230     Mtftp4Dxe:Mtftp4Rrq.obj
 0006:00000244       $unwind$Mtftp4RrqHandleOack 0000000000020244     Mtftp4Dxe:Mtftp4Rrq.obj
 0006:00000244       $unwind$Mtftp4WrqHandleOack 0000000000020244     Mtftp4Dxe:Mtftp4Wrq.obj
 0006:0000025c       $unwind$Mtftp4RrqInput     000000000002025c     Mtftp4Dxe:Mtftp4Rrq.obj
 0006:00000274       $unwind$Mtftp4WrqSendBlock 0000000000020274     Mtftp4Dxe:Mtftp4Wrq.obj
 0006:0000028c       $unwind$Mtftp4WrqHandleAck 000000000002028c     Mtftp4Dxe:Mtftp4Wrq.obj
 0006:000002a0       $unwind$DebugPrint         00000000000202a0     PeiDxeDebugLibReportStatusCode:DebugLib.obj
 0006:000002b0       $unwind$DebugAssert        00000000000202b0     PeiDxeDebugLibReportStatusCode:DebugLib.obj
 0006:000002cc       $unwind$UnicodeSPrint      00000000000202cc     BasePrintLib:PrintLib.obj
 0006:000002d8       $unwind$BasePrintLibSPrintMarker 00000000000202d8     BasePrintLib:PrintLibInternal.obj
 0006:000002f4       $unwind$BasePrintLibSPrint 00000000000202f4     BasePrintLib:PrintLibInternal.obj
 0006:000002fc       $unwind$AddUnicodeString2  00000000000202fc     UefiLib:UefiLib.obj
 0006:00000314       $unwind$GetDebugPrintErrorLevel 0000000000020314     DxeDebugPrintErrorLevelLib:DxeDebugPrintErrorLevelLib.obj
 0006:0000031c       $unwind$Ip6Swap128         000000000002031c     DxeNetLib:DxeNetLib.obj
 0006:0000032c       $unwind$NetLibCreateServiceChild 000000000002032c     DxeNetLib:DxeNetLib.obj
 0006:0000032c       $unwind$NetLibDestroyServiceChild 000000000002032c     DxeNetLib:DxeNetLib.obj
 0006:00000340       $unwind$NetbufFromExt      0000000000020340     DxeNetLib:NetBuffer.obj
 0006:00000358       $unwind$NetbufAllocSpace   0000000000020358     DxeNetLib:NetBuffer.obj
 0006:0000036c       $unwind$UdpIoOnDgramRcvdDpc 000000000002036c     DxeUpdIoLib:DxeUdpIoLib.obj
 0006:00000380       $unwind$UdpIoCreateRxToken 0000000000020380     DxeUpdIoLib:DxeUdpIoLib.obj
 0006:00000394       $unwind$UdpIoCreateTxToken 0000000000020394     DxeUpdIoLib:DxeUdpIoLib.obj
 0006:000003a8       $unwind$UdpIoCreateIo      00000000000203a8     DxeUpdIoLib:DxeUdpIoLib.obj
 0006:000003c0       $unwind$UdpIoSendDatagram  00000000000203c0     DxeUpdIoLib:DxeUdpIoLib.obj
 0006:000003d0       $unwind$InternalReportStatusCode 00000000000203d0     DxeReportStatusCodeLib:ReportStatusCodeLib.obj
 0006:000003e8       $unwind$ReportStatusCodeEx 00000000000203e8     DxeReportStatusCodeLib:ReportStatusCodeLib.obj
