 BootMode

 Timestamp is 5c23c255 (Thu Dec 27 02:03:01 2018)

 Preferred load address is 0000000000010000

 Start         Length     Name                   Class
 0001:00000000 000000a4H .text                   CODE
 0001:000000a4 00001bf2H .text$mn                CODE
 0002:00000000 00000db4H .rdata                  DATA
 0002:00000db4 00000128H .rdata$zzzdbg           DATA
 0003:00000000 000000c0H .data                   DATA
 0003:000000c0 00000020H .bss                    DATA
 0004:00000000 00000050H .edata                  DATA
 0005:00000000 000000d8H .pdata                  DATA
 0006:00000000 000000e4H .xdata                  DATA

  Address         Publics by Value              Rva+Base               Lib:Object

 0000:00000000       __dynamic_value_reloc_table 0000000000000000     <absolute>
 0000:00000000       __guard_longjmp_table      0000000000000000     <absolute>
 0000:00000000       __hybrid_code_map          0000000000000000     <absolute>
 0000:00000000       __volatile_metadata        0000000000000000     <absolute>
 0000:00000000       __guard_iat_table          0000000000000000     <absolute>
 0000:00000000       __guard_fids_count         0000000000000000     <absolute>
 0000:00000000       __hybrid_auxiliary_iat     0000000000000000     <absolute>
 0000:00000000       __hybrid_code_map_count    0000000000000000     <absolute>
 0000:00000000       __guard_longjmp_count      0000000000000000     <absolute>
 0000:00000000       __guard_iat_count          0000000000000000     <absolute>
 0000:00000000       __enclave_config           0000000000000000     <absolute>
 0000:00000000       __guard_fids_table         0000000000000000     <absolute>
 0000:00000100       __guard_flags              0000000000000100     <absolute>
 0001:00000000       InternalMemCopyMem         0000000000011000     BaseMemoryLibOptPei:CopyMem.obj
 0001:00000040       InternalMemSetMem          0000000000011040     BaseMemoryLibOptPei:SetMem.obj
 0001:00000050       InternalMemZeroMem         0000000000011050     BaseMemoryLibOptPei:ZeroMem.obj
 0001:00000070       InternalMemSetMem64        0000000000011070     BaseMemoryLibOptPei:SetMem64.obj
 0001:00000090       InternalMemSetMem32        0000000000011090     BaseMemoryLibOptPei:SetMem32.obj
 0001:000000a4       _ModuleEntryPoint          00000000000110a4 f   PeimEntryPoint:PeimEntryPoint.obj
 0001:00000154       DebugPrint                 0000000000011154 f   PeiDxeDebugLibReportStatusCode:DebugLib.obj
 0001:00000328       DebugAssert                0000000000011328 f   PeiDxeDebugLibReportStatusCode:DebugLib.obj
 0001:00000478       GetPeiServicesTablePointer 0000000000011478 f   PeiServicesTablePointerLib:PeiServicesTablePointer.obj
 0001:000004ac       AsciiStrLen                00000000000114ac f   BaseLib:String.obj
 0001:00000518       StrnLenS                   0000000000011518 f   BaseLib:SafeString.obj
 0001:00000570       AsciiStrnLenS              0000000000011570 f   BaseLib:SafeString.obj
 0001:0000059c       AsciiStrnCpyS              000000000001159c f   BaseLib:SafeString.obj
 0001:00000698       CopyMem                    0000000000011698 f   BaseMemoryLibOptPei:CopyMemWrapper.obj
 0001:00000734       CopyGuid                   0000000000011734 f   BaseMemoryLibOptPei:MemLibGuid.obj
 0001:000007b8       CompareGuid                00000000000117b8 f   BaseMemoryLibOptPei:MemLibGuid.obj
 0001:0000081c       InternalReportStatusCode   000000000001181c f   PeiReportStatusCodeLib:ReportStatusCodeLib.obj
 0001:00000940       ReportStatusCodeEx         0000000000011940 f   PeiReportStatusCodeLib:ReportStatusCodeLib.obj
 0001:00000a40       OemHookStatusCodeReport    0000000000011a40 f   PeiNt32OemHookStatusCodeLib:Nt32OemHookStatusCodeLib.obj
 0001:00000c50       ReadUnaligned64            0000000000011c50 f   BaseLib:Unaligned.obj
 0001:00000c80       AsciiSPrint                0000000000011c80 f   BasePrintLib:PrintLib.obj
 0001:00000cac       BasePrintLibFillBuffer     0000000000011cac f   BasePrintLib:PrintLibInternal.obj
 0001:00000ce0       BasePrintLibValueToString  0000000000011ce0 f   BasePrintLib:PrintLibInternal.obj
 0001:00000d58       BasePrintLibSPrintMarker   0000000000011d58 f   BasePrintLib:PrintLibInternal.obj
 0001:00001c74       BasePrintLibSPrint         0000000000012c74 f   BasePrintLib:PrintLibInternal.obj
 0002:00000000       _gPeimRevision             0000000000013000     BootMode:AutoGen.obj
 0002:00000004       _gPcd_FixedAtBuild_PcdMaximumUnicodeStringLength 0000000000013004     BootMode:AutoGen.obj
 0002:00000008       _gPcd_FixedAtBuild_PcdReportStatusCodePropertyMask 0000000000013008     BootMode:AutoGen.obj
 0002:00000009       _gPcd_FixedAtBuild_PcdDebugPropertyMask 0000000000013009     BootMode:AutoGen.obj
 0002:0000000c       _gPcd_FixedAtBuild_PcdDebugPrintErrorLevel 000000000001300c     BootMode:AutoGen.obj
 0002:00000010       _gPcd_FixedAtBuild_PcdFixedDebugPrintErrorLevel 0000000000013010     BootMode:AutoGen.obj
 0002:00000014       _gPcd_FixedAtBuild_PcdMaximumAsciiStringLength 0000000000013014     BootMode:AutoGen.obj
 0002:00000018       gEfiCallerBaseName         0000000000013018     BootMode:AutoGen.obj
 0002:00000020       mStatusString              0000000000013020     BasePrintLib:PrintLibInternal.obj
 0002:00000160       mHexStr                    0000000000013160     BasePrintLib:PrintLibInternal.obj
 0002:00000170       ??_C@_08JJGGIGKP@BootMode@ 0000000000013170     BootMode:AutoGen.obj
 0002:00000180       ??_C@_0CB@DMEJJJHA@?6ASSERT_EFI_ERROR?5?$CIStatus?5?$DN?5?$CFr?$CJ@ 0000000000013180     BootMode:AutoGen.obj
 0002:000001a8       ??_C@_0BE@DCHLEIGN@?$CBEFI_ERROR?5?$CIStatus?$CJ@ 00000000000131a8     BootMode:AutoGen.obj
 0002:000001c0       ??_C@_0BM@HFKFJKIN@NT32?5Boot?5Mode?5PEIM?5Loaded?6@ 00000000000131c0     BootMode:BootModePei.obj
 0002:000001e0       ??_C@_0CK@EJEOLKBP@c?3?2edk2?2Nt32Pkg?2BootModePei?2Boo@ 00000000000131e0     BootMode:BootModePei.obj
 0002:00000210       ??_C@_0BH@LKMBFCBF@Format?5?$CB?$DN?5?$CI?$CIvoid?5?$CK?$CJ?50?$CJ@ 0000000000013210     PeiDxeDebugLibReportStatusCode:DebugLib.obj
 0002:00000230       ??_C@_0EH@EMGPELNE@c?3?2edk2?2MdeModulePkg?2Library?2Pe@ 0000000000013230     PeiDxeDebugLibReportStatusCode:DebugLib.obj
 0002:00000278       ??_C@_0CI@HIINONDG@?$CICHAR8?5?$CK?$CJBaseListMarker?5?$DM?$DN?5Form@ 0000000000013278     PeiDxeDebugLibReportStatusCode:DebugLib.obj
 0002:000002a0       ??_C@_01OHGJGJJP@?$FL@     00000000000132a0     PeiDxeDebugLibReportStatusCode:DebugLib.obj
 0002:000002a4       ??_C@_02PBFOLPKM@?$FN?5@   00000000000132a4     PeiDxeDebugLibReportStatusCode:DebugLib.obj
 0002:000002a8       ??_C@_0BH@IACGKAP@Buffer?5?$CB?$DN?5?$CI?$CIvoid?5?$CK?$CJ?50?$CJ@ 00000000000132a8     PeiDxeDebugLibReportStatusCode:DebugLib.obj
 0002:000002c0       ??_C@_0EM@LDAGHANC@c?3?2edk2?2MdePkg?2Library?2PeiServi@ 00000000000132c0     PeiServicesTablePointerLib:PeiServicesTablePointer.obj
 0002:00000310       ??_C@_0BN@OJIBNMOJ@gPeiServices?5?$CB?$DN?5?$CI?$CIvoid?5?$CK?$CJ?50?$CJ@ 0000000000013310     PeiServicesTablePointerLib:PeiServicesTablePointer.obj
 0002:00000330       ??_C@_0CI@BEFOLLLE@c?3?2edk2?2MdePkg?2Library?2BaseLib?2@ 0000000000013330     BaseLib:String.obj
 0002:00000358       ??_C@_0BH@MAAHKCPC@String?5?$CB?$DN?5?$CI?$CIvoid?5?$CK?$CJ?50?$CJ@ 0000000000013358     BaseLib:String.obj
 0002:00000370       ??_C@_0CD@BDCLIGHD@?$CI?$CIUINTN?$CJ?5String?5?$CG?50x00000001?$CJ?5?$DN@ 0000000000013370     BaseLib:String.obj
 0002:00000398       ??_C@_0DI@MDIKFADO@Length?5?$DM?5_gPcd_FixedAtBuild_Pcd@ 0000000000013398     BaseLib:String.obj
 0002:000003d0       ??_C@_0CM@GBAFEFEA@c?3?2edk2?2MdePkg?2Library?2BaseLib?2@ 00000000000133d0     BaseLib:SafeString.obj
 0002:00000400       ??_C@_0BO@ECNIOIHG@?$CIDestination?5?$CB?$DN?5?$CI?$CIvoid?5?$CK?$CJ?50?$CJ?$CJ@ 0000000000013400     BaseLib:SafeString.obj
 0002:00000420       ??_C@_0BJ@EAEEJIP@?$CISource?5?$CB?$DN?5?$CI?$CIvoid?5?$CK?$CJ?50?$CJ?$CJ@ 0000000000013420     BaseLib:SafeString.obj
 0002:00000440       ??_C@_0BJ@CNKJJNE@?$CIBuffer?5?$CB?$DN?5?$CI?$CIvoid?5?$CK?$CJ?50?$CJ?$CJ@ 0000000000013440     BaseLib:SafeString.obj
 0002:00000460       ??_C@_0FL@CDANCHFO@InternalSafeStringNoAsciiStrOve@ 0000000000013460     BaseLib:SafeString.obj
 0002:000004c0       ??_C@_0N@KGHEHMDL@Divisor?5?$CB?$DN?50@ 00000000000134c0     BaseLib:DivU64x32.obj
 0002:000004d0       ??_C@_0ED@MKGCMJG@?$CILength?5?9?51?$CJ?5?$DM?$DN?5?$CI0xFFFFFFFFFFFF@ 00000000000134d0     BaseMemoryLibOptPei:CopyMemWrapper.obj
 0002:00000518       ??_C@_0DM@NOCJNILA@c?3?2edk2?2MdePkg?2Library?2BaseMemo@ 0000000000013518     BaseMemoryLibOptPei:CopyMemWrapper.obj
 0002:00000558       ??_C@_0DO@MAOBOFEG@?$CILength?5?9?51?$CJ?5?$DM?$DN?5?$CI0xFFFFFFFFFFFF@ 0000000000013558     BaseMemoryLibOptPei:CopyMemWrapper.obj
 0002:000005a0       ??_C@_0EK@FLJLAMPC@c?3?2edk2?2MdeModulePkg?2Library?2Pe@ 00000000000135a0     PeiReportStatusCodeLib:ReportStatusCodeLib.obj
 0002:000005f0       ??_C@_0DN@HHIHPHHB@?$CB?$CI?$CIExtendedData?5?$DN?$DN?5?$CI?$CIvoid?5?$CK?$CJ?50?$CJ@ 00000000000135f0     PeiReportStatusCodeLib:ReportStatusCodeLib.obj
 0002:00000630       ??_C@_0DN@BBBIFINB@?$CB?$CI?$CIExtendedData?5?$CB?$DN?5?$CI?$CIvoid?5?$CK?$CJ?50?$CJ@ 0000000000013630     PeiReportStatusCodeLib:ReportStatusCodeLib.obj
 0002:00000670       ??_C@_0DI@MIEIGAOH@Status?5code?5extended?5data?5is?5to@ 0000000000013670     PeiReportStatusCodeLib:ReportStatusCodeLib.obj
 0002:000006b0       ??_C@_0EP@CFCGNGBF@c?3?2edk2?2Nt32Pkg?2Library?2PeiNt32@ 00000000000136b0     PeiNt32OemHookStatusCodeLib:Nt32OemHookStatusCodeLib.obj
 0002:00000700       ??_C@_0BJ@NGECPOCK@?6?$ANASSERT?$CB?3?5?$CFa?5?$CI?$CFd?$CJ?3?5?$CFa?6?$AN@ 0000000000013700     PeiNt32OemHookStatusCodeLib:Nt32OemHookStatusCodeLib.obj
 0002:00000720       ??_C@_0BD@OMAHIICL@ERROR?3?5C?$CFx?3V?$CFx?5I?$CFx@ 0000000000013720     PeiNt32OemHookStatusCodeLib:Nt32OemHookStatusCodeLib.obj
 0002:00000734       ??_C@_03GKLDPGLG@?5?$CFg@  0000000000013734     PeiNt32OemHookStatusCodeLib:Nt32OemHookStatusCodeLib.obj
 0002:00000738       ??_C@_03GPDAHCCA@?5?$CFp@  0000000000013738     PeiNt32OemHookStatusCodeLib:Nt32OemHookStatusCodeLib.obj
 0002:0000073c       ??_C@_02LIIHNNHG@?6?$AN@   000000000001373c     PeiNt32OemHookStatusCodeLib:Nt32OemHookStatusCodeLib.obj
 0002:00000740       ??_C@_0BJ@KDCPJMDH@PROGRESS?5CODE?3?5V?$CFx?5I?$CFx?6?$AN@ 0000000000013740     PeiNt32OemHookStatusCodeLib:Nt32OemHookStatusCodeLib.obj
 0002:00000760       ??_C@_0BJ@KMGICPHL@Undefined?3?5C?$CFx?3V?$CFx?5I?$CFx?6?$AN@ 0000000000013760     PeiNt32OemHookStatusCodeLib:Nt32OemHookStatusCodeLib.obj
 0002:00000780       ??_C@_0CL@COEFNOFM@c?3?2edk2?2MdePkg?2Library?2BaseLib?2@ 0000000000013780     BaseLib:Unaligned.obj
 0002:000007b0       ??_C@_07PBILKAFL@Success@  00000000000137b0     BasePrintLib:PrintLibInternal.obj
 0002:000007b8       ??_C@_0BG@CFJMNNJK@Warning?5Unknown?5Glyph@ 00000000000137b8     BasePrintLib:PrintLibInternal.obj
 0002:000007d0       ??_C@_0BH@GKKCJEPJ@Warning?5Delete?5Failure@ 00000000000137d0     BasePrintLib:PrintLibInternal.obj
 0002:000007e8       ??_C@_0BG@ECIJMOED@Warning?5Write?5Failure@ 00000000000137e8     BasePrintLib:PrintLibInternal.obj
 0002:00000800       ??_C@_0BJ@ODIPDGHB@Warning?5Buffer?5Too?5Small@ 0000000000013800     BasePrintLib:PrintLibInternal.obj
 0002:00000820       ??_C@_0BD@IFJNJCCO@Warning?5Stale?5Data@ 0000000000013820     BasePrintLib:PrintLibInternal.obj
 0002:00000838       ??_C@_0L@PLPBEPPC@Load?5Error@ 0000000000013838     BasePrintLib:PrintLibInternal.obj
 0002:00000848       ??_C@_0BC@HOFHKGJN@Invalid?5Parameter@ 0000000000013848     BasePrintLib:PrintLibInternal.obj
 0002:00000860       ??_C@_0M@BEECMOIL@Unsupported@ 0000000000013860     BasePrintLib:PrintLibInternal.obj
 0002:00000870       ??_C@_0BA@FLNMPMCF@Bad?5Buffer?5Size@ 0000000000013870     BasePrintLib:PrintLibInternal.obj
 0002:00000880       ??_C@_0BB@EGELJFOB@Buffer?5Too?5Small@ 0000000000013880     BasePrintLib:PrintLibInternal.obj
 0002:00000898       ??_C@_09NKFGCIPN@Not?5Ready@ 0000000000013898     BasePrintLib:PrintLibInternal.obj
 0002:000008a8       ??_C@_0N@HHEABDHO@Device?5Error@ 00000000000138a8     BasePrintLib:PrintLibInternal.obj
 0002:000008b8       ??_C@_0BA@LNEDDFNB@Write?5Protected@ 00000000000138b8     BasePrintLib:PrintLibInternal.obj
 0002:000008c8       ??_C@_0BB@GOILNEAA@Out?5of?5Resources@ 00000000000138c8     BasePrintLib:PrintLibInternal.obj
 0002:000008e0       ??_C@_0P@EIOJGIF@Volume?5Corrupt@ 00000000000138e0     BasePrintLib:PrintLibInternal.obj
 0002:000008f0       ??_C@_0M@HDLEPOFA@Volume?5Full@ 00000000000138f0     BasePrintLib:PrintLibInternal.obj
 0002:00000900       ??_C@_08KEGAJDNN@No?5Media@ 0000000000013900     BasePrintLib:PrintLibInternal.obj
 0002:00000910       ??_C@_0O@JNCJKCCD@Media?5changed@ 0000000000013910     BasePrintLib:PrintLibInternal.obj
 0002:00000920       ??_C@_09CFCBFJND@Not?5Found@ 0000000000013920     BasePrintLib:PrintLibInternal.obj
 0002:00000930       ??_C@_0O@NFHOBIDO@Access?5Denied@ 0000000000013930     BasePrintLib:PrintLibInternal.obj
 0002:00000940       ??_C@_0M@ENKCBFEP@No?5Response@ 0000000000013940     BasePrintLib:PrintLibInternal.obj
 0002:00000950       ??_C@_0L@IFPBNFC@No?5mapping@ 0000000000013950     BasePrintLib:PrintLibInternal.obj
 0002:00000960       ??_C@_08PAFJCNGP@Time?5out@ 0000000000013960     BasePrintLib:PrintLibInternal.obj
 0002:00000970       ??_C@_0M@DCJFAFHJ@Not?5started@ 0000000000013970     BasePrintLib:PrintLibInternal.obj
 0002:00000980       ??_C@_0BA@IGIBFFPH@Already?5started@ 0000000000013980     BasePrintLib:PrintLibInternal.obj
 0002:00000990       ??_C@_07LCKDCBKK@Aborted@  0000000000013990     BasePrintLib:PrintLibInternal.obj
 0002:00000998       ??_C@_0L@LKIFCMNO@ICMP?5Error@ 0000000000013998     BasePrintLib:PrintLibInternal.obj
 0002:000009a8       ??_C@_0L@DJKNJKHM@TFTP?5Error@ 00000000000139a8     BasePrintLib:PrintLibInternal.obj
 0002:000009b8       ??_C@_0P@NCJHBCLM@Protocol?5Error@ 00000000000139b8     BasePrintLib:PrintLibInternal.obj
 0002:000009c8       ??_C@_0BF@EHOBGFMI@Incompatible?5Version@ 00000000000139c8     BasePrintLib:PrintLibInternal.obj
 0002:000009e0       ??_C@_0BD@KHMPCIOG@Security?5Violation@ 00000000000139e0     BasePrintLib:PrintLibInternal.obj
 0002:000009f8       ??_C@_09BOMAGJEG@CRC?5Error@ 00000000000139f8     BasePrintLib:PrintLibInternal.obj
 0002:00000a08       ??_C@_0N@JEJDHPO@End?5of?5Media@ 0000000000013a08     BasePrintLib:PrintLibInternal.obj
 0002:00000a18       ??_C@_0O@NMJOLAMF@Reserved?5?$CI29?$CJ@ 0000000000013a18     BasePrintLib:PrintLibInternal.obj
 0002:00000a28       ??_C@_0O@GLPDOMCP@Reserved?5?$CI30?$CJ@ 0000000000013a28     BasePrintLib:PrintLibInternal.obj
 0002:00000a38       ??_C@_0M@FKGOBENP@End?5of?5File@ 0000000000013a38     BasePrintLib:PrintLibInternal.obj
 0002:00000a48       ??_C@_0BB@KFJAMCOC@Invalid?5Language@ 0000000000013a48     BasePrintLib:PrintLibInternal.obj
 0002:00000a60       ??_C@_0BB@MFGDFIJM@Compromised?5Data@ 0000000000013a60     BasePrintLib:PrintLibInternal.obj
 0002:00000a78       ??_C@_0DH@DJIHJFON@c?3?2edk2?2MdePkg?2Library?2BasePrin@ 0000000000013a78     BasePrintLib:PrintLibInternal.obj
 0002:00000ab0       ??_C@_0EB@HDGIDCIO@?$CIBufferSize?5?$DM?$DN?5?$CI_gPcd_FixedAtBu@ 0000000000013ab0     BasePrintLib:PrintLibInternal.obj
 0002:00000af8       ??_C@_0BJ@PPAKKDJG@?$CIFormat?5?$CB?$DN?5?$CI?$CIvoid?5?$CK?$CJ?50?$CJ?$CJ@ 0000000000013af8     BasePrintLib:PrintLibInternal.obj
 0002:00000b20       ??_C@_0ED@LPDDCECB@?$CIBufferSize?5?$DM?$DN?5?$CI_gPcd_FixedAtBu@ 0000000000013b20     BasePrintLib:PrintLibInternal.obj
 0002:00000b70       ??_C@_0IM@BFJJFLGB@?$CIStrnLenS?5?$CI?$CICHAR16?5?$CK?$CJFormat?0?5?$CI_@ 0000000000013b70     BasePrintLib:PrintLibInternal.obj
 0002:00000c00       ??_C@_0ID@PLGJGION@?$CIAsciiStrnLenS?5?$CIFormat?0?5?$CI_gPcd_@ 0000000000013c00     BasePrintLib:PrintLibInternal.obj
 0002:00000c88       ??_C@_0O@MLOLIMFM@?$DMnull?5string?$DO@ 0000000000013c88     BasePrintLib:PrintLibInternal.obj
 0002:00000c98       ??_C@_0M@BJJDNPHK@?$DMnull?5guid?$DO@ 0000000000013c98     BasePrintLib:PrintLibInternal.obj
 0002:00000ca8       ??_C@_0DB@PMLHLBMO@?$CF08x?9?$CF04x?9?$CF04x?9?$CF02x?$CF02x?9?$CF02x?$CF02@ 0000000000013ca8     BasePrintLib:PrintLibInternal.obj
 0002:00000ce0       ??_C@_0M@LHGBCIKM@?$DMnull?5time?$DO@ 0000000000013ce0     BasePrintLib:PrintLibInternal.obj
 0002:00000cf0       ??_C@_0BK@FCPKCIDD@?$CF02d?1?$CF02d?1?$CF04d?5?5?$CF02d?3?$CF02d@ 0000000000013cf0     BasePrintLib:PrintLibInternal.obj
 0002:00000d0c       ??_C@_04JIMNDDED@?$CF08X@  0000000000013d0c     BasePrintLib:PrintLibInternal.obj
 0002:00000d14       ??_C@_02PCIJFNDE@?$AN?6@   0000000000013d14     BasePrintLib:PrintLibInternal.obj
 0002:00000d18       ??_C@_01LIIJDEN@?$AN@      0000000000013d18     BasePrintLib:PrintLibInternal.obj
 0002:00000d20       ??_C@_0DE@PLOFBNJA@c?3?2edk2?2MdePkg?2Library?2BaseLib?2@ 0000000000013d20     BaseLib:DivU64x32Remainder.obj
 0003:00000000       gEfiStatusCodeSpecificDataGuid 0000000000014000     BootMode:AutoGen.obj
 0003:00000010       gEfiPeiFirmwareVolumeInfo2PpiGuid 0000000000014010     BootMode:AutoGen.obj
 0003:00000020       gEfiPeiMasterBootModePpiGuid 0000000000014020     BootMode:AutoGen.obj
 0003:00000030       gEfiStatusCodeDataTypeDebugGuid 0000000000014030     BootMode:AutoGen.obj
 0003:00000040       gEfiFirmwareFileSystem2Guid 0000000000014040     BootMode:AutoGen.obj
 0003:00000050       gPeiNtThunkPpiGuid         0000000000014050     BootMode:AutoGen.obj
 0003:00000060       gEfiPeiBootInRecoveryModePpiGuid 0000000000014060     BootMode:AutoGen.obj
 0003:00000070       gEfiPeiFirmwareVolumeInfoPpiGuid 0000000000014070     BootMode:AutoGen.obj
 0003:00000080       gEfiCallerIdGuid           0000000000014080     BootMode:AutoGen.obj
 0003:00000090       mPpiListBootMode           0000000000014090     BootMode:BootModePei.obj
 0003:000000a8       mPpiListRecoveryBootMode   00000000000140a8     BootMode:BootModePei.obj
 0003:000000c0       gNullVaList                00000000000140c0     <common>
 0003:000000c8       mStdOut                    00000000000140c8     <common>
 0003:000000d0       mWinNt                     00000000000140d0     <common>
 0003:000000d8       gPeiServices               00000000000140d8     <common>

 entry point at        0001:000000a4

 Static symbols

 0000:ffff7000       .debug$S                   0000000000010000     BootMode.exp
 0001:0000001a       InternalMemCopyMem.0       000000000001101a     BaseMemoryLibOptPei:CopyMem.obj
 0001:0000002a       @CopyBackward              000000000001102a     BaseMemoryLibOptPei:CopyMem.obj
 0001:00000033       @CopyBytes                 0000000000011033     BaseMemoryLibOptPei:CopyMem.obj
 0004:00000000       .edata                     0000000000015000     BootMode.exp
 0004:00000028       rgpv                       0000000000015028     BootMode.exp
 0004:0000002c       rgszName                   000000000001502c     BootMode.exp
 0004:00000030       rgwOrd                     0000000000015030     BootMode.exp
 0004:00000032       szName                     0000000000015032     BootMode.exp
 0004:0000003f       $N00001                    000000000001503f     BootMode.exp
 0005:00000000       $pdata$_ModuleEntryPoint   0000000000016000     PeimEntryPoint:PeimEntryPoint.obj
 0005:0000000c       $pdata$DebugPrint          000000000001600c     PeiDxeDebugLibReportStatusCode:DebugLib.obj
 0005:00000018       $pdata$DebugAssert         0000000000016018     PeiDxeDebugLibReportStatusCode:DebugLib.obj
 0005:00000024       $pdata$GetPeiServicesTablePointer 0000000000016024     PeiServicesTablePointerLib:PeiServicesTablePointer.obj
 0005:00000030       $pdata$AsciiStrLen         0000000000016030     BaseLib:String.obj
 0005:0000003c       $pdata$StrnLenS            000000000001603c     BaseLib:SafeString.obj
 0005:00000048       $pdata$AsciiStrnCpyS       0000000000016048     BaseLib:SafeString.obj
 0005:00000054       $pdata$CopyMem             0000000000016054     BaseMemoryLibOptPei:CopyMemWrapper.obj
 0005:00000060       $pdata$CompareGuid         0000000000016060     BaseMemoryLibOptPei:MemLibGuid.obj
 0005:0000006c       $pdata$CopyGuid            000000000001606c     BaseMemoryLibOptPei:MemLibGuid.obj
 0005:00000078       $pdata$InternalReportStatusCode 0000000000016078     PeiReportStatusCodeLib:ReportStatusCodeLib.obj
 0005:00000084       $pdata$ReportStatusCodeEx  0000000000016084     PeiReportStatusCodeLib:ReportStatusCodeLib.obj
 0005:00000090       $pdata$OemHookStatusCodeReport 0000000000016090     PeiNt32OemHookStatusCodeLib:Nt32OemHookStatusCodeLib.obj
 0005:0000009c       $pdata$ReadUnaligned64     000000000001609c     BaseLib:Unaligned.obj
 0005:000000a8       $pdata$AsciiSPrint         00000000000160a8     BasePrintLib:PrintLib.obj
 0005:000000b4       $pdata$BasePrintLibSPrint  00000000000160b4     BasePrintLib:PrintLibInternal.obj
 0005:000000c0       $pdata$BasePrintLibValueToString 00000000000160c0     BasePrintLib:PrintLibInternal.obj
 0005:000000cc       $pdata$BasePrintLibSPrintMarker 00000000000160cc     BasePrintLib:PrintLibInternal.obj
 0006:00000000       $unwind$_ModuleEntryPoint  0000000000017000     PeimEntryPoint:PeimEntryPoint.obj
 0006:00000000       $unwind$AsciiStrLen        0000000000017000     BaseLib:String.obj
 0006:0000000c       $unwind$DebugPrint         000000000001700c     PeiDxeDebugLibReportStatusCode:DebugLib.obj
 0006:0000001c       $unwind$DebugAssert        000000000001701c     PeiDxeDebugLibReportStatusCode:DebugLib.obj
 0006:00000038       $unwind$GetPeiServicesTablePointer 0000000000017038     PeiServicesTablePointerLib:PeiServicesTablePointer.obj
 0006:00000040       $unwind$ReadUnaligned64    0000000000017040     BaseLib:Unaligned.obj
 0006:00000040       $unwind$StrnLenS           0000000000017040     BaseLib:SafeString.obj
 0006:00000048       $unwind$CompareGuid        0000000000017048     BaseMemoryLibOptPei:MemLibGuid.obj
 0006:00000048       $unwind$CopyGuid           0000000000017048     BaseMemoryLibOptPei:MemLibGuid.obj
 0006:00000048       $unwind$AsciiStrnCpyS      0000000000017048     BaseLib:SafeString.obj
 0006:00000058       $unwind$CopyMem            0000000000017058     BaseMemoryLibOptPei:CopyMemWrapper.obj
 0006:00000058       $unwind$BasePrintLibValueToString 0000000000017058     BasePrintLib:PrintLibInternal.obj
 0006:0000006c       $unwind$InternalReportStatusCode 000000000001706c     PeiReportStatusCodeLib:ReportStatusCodeLib.obj
 0006:00000084       $unwind$ReportStatusCodeEx 0000000000017084     PeiReportStatusCodeLib:ReportStatusCodeLib.obj
 0006:00000098       $unwind$OemHookStatusCodeReport 0000000000017098     PeiNt32OemHookStatusCodeLib:Nt32OemHookStatusCodeLib.obj
 0006:000000b8       $unwind$AsciiSPrint        00000000000170b8     BasePrintLib:PrintLib.obj
 0006:000000c0       $unwind$BasePrintLibSPrintMarker 00000000000170c0     BasePrintLib:PrintLibInternal.obj
 0006:000000dc       $unwind$BasePrintLibSPrint 00000000000170dc     BasePrintLib:PrintLibInternal.obj
