 UefiPxe4BcDxe

 Timestamp is 5c23c3e0 (Thu Dec 27 02:09:36 2018)

 Preferred load address is 0000000000010000

 Start         Length     Name                   Class
 0001:00000000 00000130H .text                   CODE
 0001:00000130 00009042H .text$mn                CODE
 0002:00000000 00001ce4H .rdata                  DATA
 0002:00001ce4 00000144H .rdata$zzzdbg           DATA
 0003:00000000 00000490H .data                   DATA
 0003:00000490 00000058H .bss                    DATA
 0004:00000000 00000055H .edata                  DATA
 0005:00000000 00000450H .pdata                  DATA
 0006:00000000 0000045cH .xdata                  DATA

  Address         Publics by Value              Rva+Base               Lib:Object

 0000:00000000       __guard_longjmp_table      0000000000000000     <absolute>
 0000:00000000       __dynamic_value_reloc_table 0000000000000000     <absolute>
 0000:00000000       __guard_longjmp_count      0000000000000000     <absolute>
 0000:00000000       __guard_fids_count         0000000000000000     <absolute>
 0000:00000000       __hybrid_code_map_count    0000000000000000     <absolute>
 0000:00000000       __guard_iat_table          0000000000000000     <absolute>
 0000:00000000       __enclave_config           0000000000000000     <absolute>
 0000:00000000       __hybrid_auxiliary_iat     0000000000000000     <absolute>
 0000:00000000       __hybrid_code_map          0000000000000000     <absolute>
 0000:00000000       __guard_iat_count          0000000000000000     <absolute>
 0000:00000000       __volatile_metadata        0000000000000000     <absolute>
 0000:00000000       __guard_fids_table         0000000000000000     <absolute>
 0000:00000100       __guard_flags              0000000000000100     <absolute>
 0001:00000000       InternalMemCopyMem         0000000000011000     BaseMemoryLibOptDxe:CopyMem.obj
 0001:00000080       InternalMemZeroMem         0000000000011080     BaseMemoryLibOptDxe:ZeroMem.obj
 0001:000000a0       InternalMemCompareMem      00000000000110a0     BaseMemoryLibOptDxe:CompareMem.obj
 0001:000000c0       InternalMemSetMem          00000000000110c0     BaseMemoryLibOptDxe:SetMem.obj
 0001:00000100       InternalMemSetMem64        0000000000011100     BaseMemoryLibOptDxe:SetMem64.obj
 0001:00000120       InternalMemSetMem32        0000000000011120     BaseMemoryLibOptDxe:SetMem32.obj
 0001:00000130       _DriverUnloadHandler       0000000000011130 f   UefiDriverEntryPoint:DriverEntryPoint.obj
 0001:000002d0       _ModuleEntryPoint          00000000000112d0 f   UefiDriverEntryPoint:DriverEntryPoint.obj
 0001:00000404       ProcessLibraryConstructorList 0000000000011404 f   UefiPxe4BcDxe:AutoGen.obj
 0001:00000640       ProcessLibraryDestructorList 0000000000011640 f   UefiPxe4BcDxe:AutoGen.obj
 0001:00000698       PxeBcDriverBindingSupported 0000000000011698 f   UefiPxe4BcDxe:PxeBcDriver.obj
 0001:0000074c       PxeBcDriverBindingStart    000000000001174c f   UefiPxe4BcDxe:PxeBcDriver.obj
 0001:00000e34       PxeBcDriverBindingStop     0000000000011e34 f   UefiPxe4BcDxe:PxeBcDriver.obj
 0001:000010fc       UpdateArpCache             00000000000120fc f   UefiPxe4BcDxe:PxeBcImpl.obj
 0001:000011f4       ArpCacheUpdateTimeout      00000000000121f4 f   UefiPxe4BcDxe:PxeBcImpl.obj
 0001:000011fc       FindInArpCache             00000000000121fc f   UefiPxe4BcDxe:PxeBcImpl.obj
 0001:00001290       IcmpErrorListenHandlerDpc  0000000000012290 f   UefiPxe4BcDxe:PxeBcImpl.obj
 0001:00001420       IcmpErrorListenHandler     0000000000012420 f   UefiPxe4BcDxe:PxeBcImpl.obj
 0001:0000143c       EfiPxeBcStart              000000000001243c f   UefiPxe4BcDxe:PxeBcImpl.obj
 0001:000016ac       EfiPxeBcStop               00000000000126ac f   UefiPxe4BcDxe:PxeBcImpl.obj
 0001:000017e8       EfiPxeBcDhcp               00000000000127e8 f   UefiPxe4BcDxe:PxeBcImpl.obj
 0001:00001c30       EfiPxeBcDiscover           0000000000012c30 f   UefiPxe4BcDxe:PxeBcImpl.obj
 0001:000021d8       EfiPxeBcMtftp              00000000000131d8 f   UefiPxe4BcDxe:PxeBcImpl.obj
 0001:00002494       EfiPxeBcUdpWrite           0000000000013494 f   UefiPxe4BcDxe:PxeBcImpl.obj
 0001:00002800       CheckIpByFilter            0000000000013800 f   UefiPxe4BcDxe:PxeBcImpl.obj
 0001:0000293c       EfiPxeBcUdpRead            000000000001393c f   UefiPxe4BcDxe:PxeBcImpl.obj
 0001:00002d80       EfiPxeBcSetIpFilter        0000000000013d80 f   UefiPxe4BcDxe:PxeBcImpl.obj
 0001:00003044       EfiPxeBcArp                0000000000014044 f   UefiPxe4BcDxe:PxeBcImpl.obj
 0001:0000316c       EfiPxeBcSetParameters      000000000001416c f   UefiPxe4BcDxe:PxeBcImpl.obj
 0001:000032d4       EfiPxeBcSetStationIP       00000000000142d4 f   UefiPxe4BcDxe:PxeBcImpl.obj
 0001:000034e8       EfiPxeBcSetPackets         00000000000144e8 f   UefiPxe4BcDxe:PxeBcImpl.obj
 0001:00003664       EfiPxeLoadFileCallback     0000000000014664 f   UefiPxe4BcDxe:PxeBcImpl.obj
 0001:00003708       DiscoverBootFile           0000000000014708 f   UefiPxe4BcDxe:PxeBcImpl.obj
 0001:00003980       EfiPxeLoadFile             0000000000014980 f   UefiPxe4BcDxe:PxeBcImpl.obj
 0001:00003d94       PxeBcComponentNameGetDriverName 0000000000014d94 f   UefiPxe4BcDxe:ComponentName.obj
 0001:00003dc8       PxeBcComponentNameGetControllerName 0000000000014dc8 f   UefiPxe4BcDxe:ComponentName.obj
 0001:00003ed0       PxeBcCopyEfiDhcp4Packet    0000000000014ed0 f   UefiPxe4BcDxe:PxeBcDhcp.obj
 0001:00003f18       PxeBcCopyProxyOffer        0000000000014f18 f   UefiPxe4BcDxe:PxeBcDhcp.obj
 0001:00003fd4       PxeBcParseCachedDhcpPacket 0000000000014fd4 f   UefiPxe4BcDxe:PxeBcDhcp.obj
 0001:000041e4       PxeBcTryBinl               00000000000151e4 f   UefiPxe4BcDxe:PxeBcDhcp.obj
 0001:0000432c       PxeBcCheckSelectedOffer    000000000001532c f   UefiPxe4BcDxe:PxeBcDhcp.obj
 0001:000045a8       PxeBcCacheDhcpOffer        00000000000155a8 f   UefiPxe4BcDxe:PxeBcDhcp.obj
 0001:00004700       PxeBcSelectOffer           0000000000015700 f   UefiPxe4BcDxe:PxeBcDhcp.obj
 0001:000048b4       PxeBcDhcpCallBack          00000000000158b4 f   UefiPxe4BcDxe:PxeBcDhcp.obj
 0001:00004ab0       PxeBcBuildDhcpOptions      0000000000015ab0 f   UefiPxe4BcDxe:PxeBcDhcp.obj
 0001:00004db4       PxeBcDiscvBootService      0000000000015db4 f   UefiPxe4BcDxe:PxeBcDhcp.obj
 0001:0000527c       PxeBcParseExtendOptions    000000000001627c f   UefiPxe4BcDxe:PxeBcDhcp.obj
 0001:000052b4       PxeBcParseVendorOptions    00000000000162b4 f   UefiPxe4BcDxe:PxeBcDhcp.obj
 0001:00005490       PxeBcDisplayBootItem       0000000000016490 f   UefiPxe4BcDxe:PxeBcDhcp.obj
 0001:000054dc       PxeBcSelectBootPrompt      00000000000164dc f   UefiPxe4BcDxe:PxeBcDhcp.obj
 0001:000057fc       PxeBcSelectBootMenu        00000000000167fc f   UefiPxe4BcDxe:PxeBcDhcp.obj
 0001:00005c0c       PxeBcCheckPacket           0000000000016c0c f   UefiPxe4BcDxe:PxeBcMtftp.obj
 0001:00005cc0       PxeBcTftpGetFileSize       0000000000016cc0 f   UefiPxe4BcDxe:PxeBcMtftp.obj
 0001:00005ee8       PxeBcTftpReadFile          0000000000016ee8 f   UefiPxe4BcDxe:PxeBcMtftp.obj
 0001:00006008       PxeBcTftpWriteFile         0000000000017008 f   UefiPxe4BcDxe:PxeBcMtftp.obj
 0001:00006104       PxeBcTftpReadDirectory     0000000000017104 f   UefiPxe4BcDxe:PxeBcMtftp.obj
 0001:00006224       PxeBcCommonNotify          0000000000017224 f   UefiPxe4BcDxe:PxeBcSupport.obj
 0001:00006228       PxeBcConfigureUdpWriteInstance 0000000000017228 f   UefiPxe4BcDxe:PxeBcSupport.obj
 0001:00006348       PxeBcShowIp4Addr           0000000000017348 f   UefiPxe4BcDxe:PxeBcSupport.obj
 0001:00006390       UtoA10                     0000000000017390 f   UefiPxe4BcDxe:PxeBcSupport.obj
 0001:000064fc       DebugPrint                 00000000000174fc f   PeiDxeDebugLibReportStatusCode:DebugLib.obj
 0001:000066d8       DebugAssert                00000000000176d8 f   PeiDxeDebugLibReportStatusCode:DebugLib.obj
 0001:00006828       CopyMem                    0000000000017828 f   BaseMemoryLibOptDxe:CopyMemWrapper.obj
 0001:000068c4       ZeroMem                    00000000000178c4 f   BaseMemoryLibOptDxe:ZeroMemWrapper.obj
 0001:00006928       CompareMem                 0000000000017928 f   BaseMemoryLibOptDxe:CompareMemWrapper.obj
 0001:000069f4       SetMem                     00000000000179f4 f   BaseMemoryLibOptDxe:SetMemWrapper.obj
 0001:00006a50       AsciiStrLen                0000000000017a50 f   BaseLib:String.obj
 0001:00006abc       AsciiStrnCmp               0000000000017abc f   BaseLib:String.obj
 0001:00006b7c       StrnLenS                   0000000000017b7c f   BaseLib:SafeString.obj
 0001:00006bd4       AsciiStrnLenS              0000000000017bd4 f   BaseLib:SafeString.obj
 0001:00006c00       AsciiStrnCpyS              0000000000017c00 f   BaseLib:SafeString.obj
 0001:00006d6c       InternalAllocatePool       0000000000017d6c f   UefiMemoryAllocationLib:MemoryAllocationLib.obj
 0001:00006d9c       AllocateZeroPool           0000000000017d9c f   UefiMemoryAllocationLib:MemoryAllocationLib.obj
 0001:00006dc8       InternalAllocateCopyPool   0000000000017dc8 f   UefiMemoryAllocationLib:MemoryAllocationLib.obj
 0001:00006e40       FreePool                   0000000000017e40 f   UefiMemoryAllocationLib:MemoryAllocationLib.obj
 0001:00006e84       IsDevicePathEndType        0000000000017e84 f   UefiDevicePathLibDevicePathProtocol:UefiDevicePathLib.obj
 0001:00006ed0       IsDevicePathEnd            0000000000017ed0 f   UefiDevicePathLibDevicePathProtocol:UefiDevicePathLib.obj
 0001:00006f3c       DevicePathFromHandle       0000000000017f3c f   UefiDevicePathLibDevicePathProtocol:UefiDevicePathLib.obj
 0001:00006f70       CompareIso639LanguageCode  0000000000017f70 f   UefiLib:UefiLib.obj
 0001:00006fd8       EfiGetSystemConfigurationTable 0000000000017fd8 f   UefiLib:UefiLib.obj
 0001:0000709c       LookupUnicodeString2       000000000001809c f   UefiLib:UefiLib.obj
 0001:000071f0       AsciiInternalPrint         00000000000181f0 f   UefiLib:UefiLibPrint.obj
 0001:000072c8       AsciiPrint                 00000000000182c8 f   UefiLib:UefiLibPrint.obj
 0001:00007320       GetHobList                 0000000000018320 f   DxeHobLib:HobLib.obj
 0001:000073a4       GetNextHob                 00000000000183a4 f   DxeHobLib:HobLib.obj
 0001:000073f4       GetDebugPrintErrorLevel    00000000000183f4 f   DxeDebugPrintErrorLevelLib:DxeDebugPrintErrorLevelLib.obj
 0001:00007510       GetDebugMask               0000000000018510 f   DxeDebugPrintErrorLevelLib:DxeDebugPrintErrorLevelLib.obj
 0001:0000752c       SetDebugMask               000000000001852c f   DxeDebugPrintErrorLevelLib:DxeDebugPrintErrorLevelLib.obj
 0001:00007538       NetIp4IsUnicast            0000000000018538 f   DxeNetLib:DxeNetLib.obj
 0001:000075a8       NetLibCreateServiceChild   00000000000185a8 f   DxeNetLib:DxeNetLib.obj
 0001:0000763c       NetLibDestroyServiceChild  000000000001863c f   DxeNetLib:DxeNetLib.obj
 0001:000076cc       NetLibGetSnpHandle         00000000000186cc f   DxeNetLib:DxeNetLib.obj
 0001:00007794       NetLibDetectMedia          0000000000018794 f   DxeNetLib:DxeNetLib.obj
 0001:000079c8       NetLibDetectMediaWaitTimeout 00000000000189c8 f   DxeNetLib:DxeNetLib.obj
 0001:00007bfc       NetLibGetNicHandle         0000000000018bfc f   DxeNetLib:DxeNetLib.obj
 0001:00007ca4       NetLibGetSystemGuid        0000000000018ca4 f   DxeNetLib:DxeNetLib.obj
 0001:00007d7c       InternalReportStatusCode   0000000000018d7c f   DxeReportStatusCodeLib:ReportStatusCodeLib.obj
 0001:00007e44       ReportStatusCodeEx         0000000000018e44 f   DxeReportStatusCodeLib:ReportStatusCodeLib.obj
 0001:00008018       CopyGuid                   0000000000019018 f   BaseMemoryLibOptDxe:MemLibGuid.obj
 0001:0000809c       CompareGuid                000000000001909c f   BaseMemoryLibOptDxe:MemLibGuid.obj
 0001:00008104       ReadUnaligned64            0000000000019104 f   BaseLib:Unaligned.obj
 0001:00008134       UnicodeVSPrintAsciiFormat  0000000000019134 f   BasePrintLib:PrintLib.obj
 0001:00008194       BasePrintLibFillBuffer     0000000000019194 f   BasePrintLib:PrintLibInternal.obj
 0001:000081c8       BasePrintLibValueToString  00000000000191c8 f   BasePrintLib:PrintLibInternal.obj
 0001:00008240       BasePrintLibSPrintMarker   0000000000019240 f   BasePrintLib:PrintLibInternal.obj
 0001:00009150       BasePrintLibSPrint         000000000001a150 f   BasePrintLib:PrintLibInternal.obj
 0002:00000000       ??_C@_0CB@DMEJJJHA@?6ASSERT_EFI_ERROR?5?$CIStatus?5?$DN?5?$CFr?$CJ@ 000000000001b000     UefiDriverEntryPoint:DriverEntryPoint.obj
 0002:00000028       ??_C@_0BE@DCHLEIGN@?$CBEFI_ERROR?5?$CIStatus?$CJ@ 000000000001b028     UefiDriverEntryPoint:DriverEntryPoint.obj
 0002:00000040       ??_C@_0DP@IIJLMAMA@c?3?2edk2?2MdePkg?2Library?2UefiDriv@ 000000000001b040     UefiDriverEntryPoint:DriverEntryPoint.obj
 0002:00000080       _gDriverUnloadImageCount   000000000001b080     UefiPxe4BcDxe:AutoGen.obj
 0002:00000081       _gPcd_FixedAtBuild_PcdReportStatusCodePropertyMask 000000000001b081     UefiPxe4BcDxe:AutoGen.obj
 0002:00000082       _gPcd_FixedAtBuild_PcdComponentNameDisable 000000000001b082     UefiPxe4BcDxe:AutoGen.obj
 0002:00000083       _gPcd_FixedAtBuild_PcdDebugPropertyMask 000000000001b083     UefiPxe4BcDxe:AutoGen.obj
 0002:00000084       _gUefiDriverRevision       000000000001b084     UefiPxe4BcDxe:AutoGen.obj
 0002:00000088       _gPcd_FixedAtBuild_PcdMaximumUnicodeStringLength 000000000001b088     UefiPxe4BcDxe:AutoGen.obj
 0002:0000008c       _gPcd_FixedAtBuild_PcdDebugPrintErrorLevel 000000000001b08c     UefiPxe4BcDxe:AutoGen.obj
 0002:00000090       _gPcd_FixedAtBuild_PcdTftpBlockSize 000000000001b090     UefiPxe4BcDxe:AutoGen.obj
 0002:00000098       _gPcd_FixedAtBuild_PcdUefiLibMaxPrintBufferSize 000000000001b098     UefiPxe4BcDxe:AutoGen.obj
 0002:0000009c       _gPcd_FixedAtBuild_PcdFixedDebugPrintErrorLevel 000000000001b09c     UefiPxe4BcDxe:AutoGen.obj
 0002:000000a0       gEfiCallerBaseName         000000000001b0a0     UefiPxe4BcDxe:AutoGen.obj
 0002:000000a8       _gPcd_FixedAtBuild_PcdMaximumAsciiStringLength 000000000001b0a8     UefiPxe4BcDxe:AutoGen.obj
 0002:000000ac       _gPcd_FixedAtBuild_PcdComponentName2Disable 000000000001b0ac     UefiPxe4BcDxe:AutoGen.obj
 0002:000000b0       mInterestedDhcp4Tags       000000000001b0b0     UefiPxe4BcDxe:PxeBcDhcp.obj
 0002:000000b8       mMtftpOptions              000000000001b0b8     UefiPxe4BcDxe:PxeBcMtftp.obj
 0002:000000d8       mUefiDevicePathLibEndDevicePath 000000000001b0d8     UefiDevicePathLibDevicePathProtocol:UefiDevicePathLib.obj
 0002:000000e0       gIp4AllMasks               000000000001b0e0     DxeNetLib:DxeNetLib.obj
 0002:00000170       mStatusString              000000000001b170     BasePrintLib:PrintLibInternal.obj
 0002:000002b0       mHexStr                    000000000001b2b0     BasePrintLib:PrintLibInternal.obj
 0002:000002c0       ??_C@_0O@IOJCCMFB@UefiPxe4BcDxe@ 000000000001b2c0     UefiPxe4BcDxe:AutoGen.obj
 0002:000002d0       ??_C@_0HA@FNLCGPIG@c?3?2edk2?2Build?2NT32X64?2DEBUG_VS2@ 000000000001b2d0     UefiPxe4BcDxe:AutoGen.obj
 0002:00000340       ??_C@_0BF@NDBIKIKC@CR?5has?5Bad?5Signature@ 000000000001b340     UefiPxe4BcDxe:PxeBcDriver.obj
 0002:00000360       ??_C@_0EC@LKIMOEIG@c?3?2edk2?2MdeModulePkg?2Universal?2@ 000000000001b360     UefiPxe4BcDxe:PxeBcDriver.obj
 0002:000003b0       ??_C@_0EA@FDCKCPKA@c?3?2edk2?2MdeModulePkg?2Universal?2@ 000000000001b3b0     UefiPxe4BcDxe:PxeBcImpl.obj
 0002:000003f0       ??_C@_0BH@DNJIOCKK@?6?$DO?$DOStart?5PXE?5over?5IPv4@ 000000000001b3f0     UefiPxe4BcDxe:PxeBcImpl.obj
 0002:00000408       ??_C@_0BO@LKFNDDOB@Dhcp4Mode?4State?5?$DN?$DN?5Dhcp4Bound@ 000000000001b408     UefiPxe4BcDxe:PxeBcImpl.obj
 0002:00000428       ??_C@_0BK@JGLFKFII@?6?5?5Station?5IP?5address?5is?5@ 000000000001b428     UefiPxe4BcDxe:PxeBcImpl.obj
 0002:00000444       ??_C@_01EEMJAFIK@?6@       000000000001b444     UefiPxe4BcDxe:PxeBcImpl.obj
 0002:00000448       ??_C@_0BO@DAMDGJKA@PxeBcMode?9?$DOIpFilter?4IpCnt?5?$DM?58@ 000000000001b448     UefiPxe4BcDxe:PxeBcImpl.obj
 0002:00000468       ??_C@_0BH@GJHHIFJN@RxData?5?$CB?$DN?5?$CI?$CIvoid?5?$CK?$CJ?50?$CJ@ 000000000001b468     UefiPxe4BcDxe:PxeBcImpl.obj
 0002:00000480       ??_C@_0P@LIOMOKKF@This?5?$DN?$DN?5NULL?4?6@ 000000000001b480     UefiPxe4BcDxe:PxeBcImpl.obj
 0002:00000490       ??_C@_0BE@GBJEHEDC@NewFilter?5?$DN?$DN?5NULL?4?6@ 000000000001b490     UefiPxe4BcDxe:PxeBcImpl.obj
 0002:000004a8       ??_C@_0BI@BNIBOPJH@NewFilter?9?$DOIpCnt?5?$DO?5?$CFd?4?6@ 000000000001b4a8     UefiPxe4BcDxe:PxeBcImpl.obj
 0002:000004c0       ??_C@_0BF@BFOOKPAB@BC?5was?5not?5started?4?6@ 000000000001b4c0     UefiPxe4BcDxe:PxeBcImpl.obj
 0002:000004d8       ??_C@_0CD@DJAPOMLM@This?5driver?5is?5PXE?5for?5IPv4?5Onl@ 000000000001b4d8     UefiPxe4BcDxe:PxeBcImpl.obj
 0002:00000500       ??_C@_0CK@FFMLKPIB@There?5is?5broadcast?5address?5in?5N@ 000000000001b500     UefiPxe4BcDxe:PxeBcImpl.obj
 0002:0000052c       ??_C@_01LFCBOECM@?4@       000000000001b52c     UefiPxe4BcDxe:PxeBcImpl.obj
 0002:00000530       ??_C@_0CH@NCIMLBGH@Packet?9?$DODhcp4Option?$FL6?$FN?5?$CB?$DN?5?$CI?$CIvoi@ 000000000001b530     UefiPxe4BcDxe:PxeBcImpl.obj
 0002:00000558       ??_C@_0BJ@FHIDIOID@?6?5?5Server?5IP?5address?5is?5@ 000000000001b558     UefiPxe4BcDxe:PxeBcImpl.obj
 0002:00000578       ??_C@_0BG@KFMELNLO@?6?5?5NBP?5filename?5is?5?$CFa@ 000000000001b578     UefiPxe4BcDxe:PxeBcImpl.obj
 0002:00000590       ??_C@_0BM@NIMIGHBL@?6?5?5NBP?5filesize?5is?5?$CFd?5Bytes@ 000000000001b590     UefiPxe4BcDxe:PxeBcImpl.obj
 0002:000005b0       ??_C@_0BL@BBLPMEEF@?6?5Downloading?5NBP?5file?4?4?4?6@ 000000000001b5b0     UefiPxe4BcDxe:PxeBcImpl.obj
 0002:000005d0       ??_C@_0CG@DNODKIIF@?6?5?5NBP?5file?5downloaded?5successf@ 000000000001b5d0     UefiPxe4BcDxe:PxeBcImpl.obj
 0002:000005f8       ??_C@_0DK@LPFJBBNC@PXE?9E05?3?5Download?5buffer?5is?5sma@ 000000000001b5f8     UefiPxe4BcDxe:PxeBcImpl.obj
 0002:00000638       ??_C@_0CA@DKKMBBFI@PXE?9E07?3?5Network?5device?5error?4?6@ 000000000001b638     UefiPxe4BcDxe:PxeBcImpl.obj
 0002:00000658       ??_C@_0CK@KDODIHKJ@PXE?9E09?3?5Could?5not?5allocate?5I?1O@ 000000000001b658     UefiPxe4BcDxe:PxeBcImpl.obj
 0002:00000688       ??_C@_0CP@BMPADBBD@PXE?9E12?3?5Could?5not?5detect?5netwo@ 000000000001b688     UefiPxe4BcDxe:PxeBcImpl.obj
 0002:000006b8       ??_C@_0BN@EBHALIAM@PXE?9E16?3?5No?5offer?5received?4?6@ 000000000001b6b8     UefiPxe4BcDxe:PxeBcImpl.obj
 0002:000006d8       ??_C@_0CD@PPLMCNPL@PXE?9E18?3?5Server?5response?5timeou@ 000000000001b6d8     UefiPxe4BcDxe:PxeBcImpl.obj
 0002:00000700       ??_C@_0CB@LDGBAGOA@PXE?9E21?3?5Remote?5boot?5cancelled?4@ 000000000001b700     UefiPxe4BcDxe:PxeBcImpl.obj
 0002:00000728       ??_C@_0DC@ECCNBKEH@PXE?9E22?3?5Client?5received?5ICMP?5e@ 000000000001b728     UefiPxe4BcDxe:PxeBcImpl.obj
 0002:00000760       ??_C@_0DC@DALEJIMP@PXE?9E23?3?5Client?5received?5TFTP?5e@ 000000000001b760     UefiPxe4BcDxe:PxeBcImpl.obj
 0002:00000798       ??_C@_0CE@FOIGNOLC@PXE?9E99?3?5Unexpected?5network?5err@ 000000000001b798     UefiPxe4BcDxe:PxeBcImpl.obj
 0002:000007bc       ??_C@_03LKLGDMJI@eng@      000000000001b7bc     UefiPxe4BcDxe:ComponentName.obj
 0002:000007c0       ??_C@_02LFNMGJAP@en@       000000000001b7c0     UefiPxe4BcDxe:ComponentName.obj
 0002:000007c4       ??_C@_06DALJLGPG@eng?$DLen@ 000000000001b7c4     UefiPxe4BcDxe:ComponentName.obj
 0002:000007d0       ??_C@_1DE@DLEHGBLE@?$AAU?$AAE?$AAF?$AAI?$AA?5?$AAP?$AAX?$AAE?$AA?5?$AAB?$AAa?$AAs?$AAe?$AA?5?$AAC@ 000000000001b7d0     UefiPxe4BcDxe:ComponentName.obj
 0002:00000808       ??_C@_1BO@MKJHNEPA@?$AAP?$AAX?$AAE?$AA?5?$AAC?$AAo?$AAn?$AAt?$AAr?$AAo?$AAl?$AAl?$AAe?$AAr@ 000000000001b808     UefiPxe4BcDxe:ComponentName.obj
 0002:00000828       ??_C@_0CA@GOIAFEIH@OfferIndex?5?$DM?5Private?9?$DONumOffers@ 000000000001b828     UefiPxe4BcDxe:PxeBcDhcp.obj
 0002:00000850       ??_C@_0EA@FPLPNKKG@c?3?2edk2?2MdeModulePkg?2Universal?2@ 000000000001b850     UefiPxe4BcDxe:PxeBcDhcp.obj
 0002:00000890       ??_C@_0BA@DHHEBEAN@OfferIndex?5?$DM?516@ 000000000001b890     UefiPxe4BcDxe:PxeBcDhcp.obj
 0002:000008a0       ??_C@_0CB@IIAGGHCA@PXEClient?3Arch?3xxxxx?3UNDI?300300@ 000000000001b8a0     UefiPxe4BcDxe:PxeBcDhcp.obj
 0002:000008c8       ??_C@_0L@NPKKFMNM@Index?5?$DM?516@ 000000000001b8c8     UefiPxe4BcDxe:PxeBcDhcp.obj
 0002:000008d8       ??_C@_0CL@LLMBCDG@Private?9?$DODhcp4Offers?$FLIndex?$FN?4Off@ 000000000001b8d8     UefiPxe4BcDxe:PxeBcDhcp.obj
 0002:00000908       ??_C@_0BM@FHJLFFCP@Private?9?$DOSelectedOffer?5?$CB?$DN?50@ 000000000001b908     UefiPxe4BcDxe:PxeBcDhcp.obj
 0002:00000928       ??_C@_0DB@OHOIDDKM@Private?9?$DOProxyIndex?$FLPrivate?9?$DOPr@ 000000000001b928     UefiPxe4BcDxe:PxeBcDhcp.obj
 0002:00000960       ??_C@_0BI@IFHEONCF@Private?9?$DONumOffers?5?$DM?516@ 000000000001b960     UefiPxe4BcDxe:PxeBcDhcp.obj
 0002:00000978       ??_C@_0BL@HMMMKOIM@Options?$FL6?$FN?5?$CB?$DN?5?$CI?$CIvoid?5?$CK?$CJ?50?$CJ@ 000000000001b978     UefiPxe4BcDxe:PxeBcDhcp.obj
 0002:00000998       ??_C@_0CF@HCAELLB@Private?9?$DOServerCount?$FLOfferType?$FN@ 000000000001b998     UefiPxe4BcDxe:PxeBcDhcp.obj
 0002:000009c0       ??_C@_0DI@DIKGJEHI@PXE?3?5Failed?5to?5read?5system?5GUID@ 000000000001b9c0     UefiPxe4BcDxe:PxeBcDhcp.obj
 0002:000009f8       ??_C@_0BG@EAGKPCGM@Layer?5?$CB?$DN?5?$CI?$CIvoid?5?$CK?$CJ?50?$CJ@ 000000000001b9f8     UefiPxe4BcDxe:PxeBcDhcp.obj
 0002:00000a10       ??_C@_04HBMEJGJK@?$CFa?5?6@ 000000000001ba10     UefiPxe4BcDxe:PxeBcDhcp.obj
 0002:00000a18       ??_C@_05LKLPEAOK@?$CI?$CFd?$CJ?5@ 000000000001ba18     UefiPxe4BcDxe:PxeBcDhcp.obj
 0002:00000a20       ??_C@_0BH@NDKNGHBC@Packet?9?$DOOfferType?5?$DN?$DN?50@ 000000000001ba20     UefiPxe4BcDxe:PxeBcDhcp.obj
 0002:00000a38       ??_C@_0M@CKKKMFOF@Select?5?$DM?524@ 000000000001ba38     UefiPxe4BcDxe:PxeBcDhcp.obj
 0002:00000a44       ??_C@_03LFOMKALF@?$CFa?$AN@ 000000000001ba44     UefiPxe4BcDxe:PxeBcDhcp.obj
 0002:00000a48       ??_C@_07JPIGAOKK@blksize@  000000000001ba48     UefiPxe4BcDxe:PxeBcMtftp.obj
 0002:00000a50       ??_C@_07DDHNKDGP@timeout@  000000000001ba50     UefiPxe4BcDxe:PxeBcMtftp.obj
 0002:00000a58       ??_C@_05GHDOEBHJ@tsize@    000000000001ba58     UefiPxe4BcDxe:PxeBcMtftp.obj
 0002:00000a60       ??_C@_09HCCMHGIN@multicast@ 000000000001ba60     UefiPxe4BcDxe:PxeBcMtftp.obj
 0002:00000a6c       ??_C@_02DPKJAMEF@?$CFd@    000000000001ba6c     UefiPxe4BcDxe:PxeBcSupport.obj
 0002:00000a70       ??_C@_0BH@LKMBFCBF@Format?5?$CB?$DN?5?$CI?$CIvoid?5?$CK?$CJ?50?$CJ@ 000000000001ba70     PeiDxeDebugLibReportStatusCode:DebugLib.obj
 0002:00000a90       ??_C@_0EH@EMGPELNE@c?3?2edk2?2MdeModulePkg?2Library?2Pe@ 000000000001ba90     PeiDxeDebugLibReportStatusCode:DebugLib.obj
 0002:00000ad8       ??_C@_0CI@HIINONDG@?$CICHAR8?5?$CK?$CJBaseListMarker?5?$DM?$DN?5Form@ 000000000001bad8     PeiDxeDebugLibReportStatusCode:DebugLib.obj
 0002:00000b00       ??_C@_01OHGJGJJP@?$FL@     000000000001bb00     PeiDxeDebugLibReportStatusCode:DebugLib.obj
 0002:00000b04       ??_C@_02PBFOLPKM@?$FN?5@   000000000001bb04     PeiDxeDebugLibReportStatusCode:DebugLib.obj
 0002:00000b08       ??_C@_0BH@IACGKAP@Buffer?5?$CB?$DN?5?$CI?$CIvoid?5?$CK?$CJ?50?$CJ@ 000000000001bb08     PeiDxeDebugLibReportStatusCode:DebugLib.obj
 0002:00000b20       ??_C@_0ED@MKGCMJG@?$CILength?5?9?51?$CJ?5?$DM?$DN?5?$CI0xFFFFFFFFFFFF@ 000000000001bb20     BaseMemoryLibOptDxe:CopyMemWrapper.obj
 0002:00000b68       ??_C@_0DM@DBGKHDAI@c?3?2edk2?2MdePkg?2Library?2BaseMemo@ 000000000001bb68     BaseMemoryLibOptDxe:CopyMemWrapper.obj
 0002:00000ba8       ??_C@_0DO@MAOBOFEG@?$CILength?5?9?51?$CJ?5?$DM?$DN?5?$CI0xFFFFFFFFFFFF@ 000000000001bba8     BaseMemoryLibOptDxe:CopyMemWrapper.obj
 0002:00000be8       ??_C@_0DM@IFMIBCMP@c?3?2edk2?2MdePkg?2Library?2BaseMemo@ 000000000001bbe8     BaseMemoryLibOptDxe:ZeroMemWrapper.obj
 0002:00000c28       ??_C@_0DG@EEENIGGL@Length?5?$DM?$DN?5?$CI0xFFFFFFFFFFFFFFFFUL@ 000000000001bc28     BaseMemoryLibOptDxe:ZeroMemWrapper.obj
 0002:00000c60       ??_C@_0CC@JOEHDGKB@DestinationBuffer?5?$CB?$DN?5?$CI?$CIvoid?5?$CK?$CJ?5@ 000000000001bc60     BaseMemoryLibOptDxe:CompareMemWrapper.obj
 0002:00000c88       ??_C@_0DP@CPGOBMAI@c?3?2edk2?2MdePkg?2Library?2BaseMemo@ 000000000001bc88     BaseMemoryLibOptDxe:CompareMemWrapper.obj
 0002:00000cc8       ??_C@_0BN@MDMCNBCC@SourceBuffer?5?$CB?$DN?5?$CI?$CIvoid?5?$CK?$CJ?50?$CJ@ 000000000001bcc8     BaseMemoryLibOptDxe:CompareMemWrapper.obj
 0002:00000ce8       ??_C@_0DI@DAGDPLPG@?$CILength?5?9?51?$CJ?5?$DM?$DN?5?$CI0xFFFFFFFFFFFF@ 000000000001bce8     BaseMemoryLibOptDxe:SetMemWrapper.obj
 0002:00000d20       ??_C@_0DL@OKGJDFMC@c?3?2edk2?2MdePkg?2Library?2BaseMemo@ 000000000001bd20     BaseMemoryLibOptDxe:SetMemWrapper.obj
 0002:00000d60       ??_C@_0CI@BEFOLLLE@c?3?2edk2?2MdePkg?2Library?2BaseLib?2@ 000000000001bd60     BaseLib:String.obj
 0002:00000d88       ??_C@_0BH@MAAHKCPC@String?5?$CB?$DN?5?$CI?$CIvoid?5?$CK?$CJ?50?$CJ@ 000000000001bd88     BaseLib:String.obj
 0002:00000da0       ??_C@_0CD@BDCLIGHD@?$CI?$CIUINTN?$CJ?5String?5?$CG?50x00000001?$CJ?5?$DN@ 000000000001bda0     BaseLib:String.obj
 0002:00000dc8       ??_C@_0DJ@JJHGIFMP@Length?5?$DM?$DN?5_gPcd_FixedAtBuild_Pc@ 000000000001bdc8     BaseLib:String.obj
 0002:00000e08       ??_C@_0DI@MDIKFADO@Length?5?$DM?5_gPcd_FixedAtBuild_Pcd@ 000000000001be08     BaseLib:String.obj
 0002:00000e40       ??_C@_0BL@IKFBNFIL@AsciiStrSize?5?$CIFirstString?$CJ@ 000000000001be40     BaseLib:String.obj
 0002:00000e60       ??_C@_0BM@EDNOKLLE@AsciiStrSize?5?$CISecondString?$CJ@ 000000000001be60     BaseLib:String.obj
 0002:00000e80       ??_C@_0CM@GBAFEFEA@c?3?2edk2?2MdePkg?2Library?2BaseLib?2@ 000000000001be80     BaseLib:SafeString.obj
 0002:00000eb0       ??_C@_0BO@ECNIOIHG@?$CIDestination?5?$CB?$DN?5?$CI?$CIvoid?5?$CK?$CJ?50?$CJ?$CJ@ 000000000001beb0     BaseLib:SafeString.obj
 0002:00000ed0       ??_C@_0BJ@EAEEJIP@?$CISource?5?$CB?$DN?5?$CI?$CIvoid?5?$CK?$CJ?50?$CJ?$CJ@ 000000000001bed0     BaseLib:SafeString.obj
 0002:00000ef0       ??_C@_0P@PMIMLIHM@?$CIDestMax?5?$CB?$DN?50?$CJ@ 000000000001bef0     BaseLib:SafeString.obj
 0002:00000f00       ??_C@_0BG@EEGIIOKH@?$CIDestMax?5?$DO?5SourceLen?$CJ@ 000000000001bf00     BaseLib:SafeString.obj
 0002:00000f18       ??_C@_0BJ@CNKJJNE@?$CIBuffer?5?$CB?$DN?5?$CI?$CIvoid?5?$CK?$CJ?50?$CJ?$CJ@ 000000000001bf18     BaseLib:SafeString.obj
 0002:00000f38       ??_C@_0DO@LJFOOPII@?$CIDestMax?5?$DM?$DN?5?$CI_gPcd_FixedAtBuild@ 000000000001bf38     BaseLib:SafeString.obj
 0002:00000f80       ??_C@_0FL@CDANCHFO@InternalSafeStringNoAsciiStrOve@ 000000000001bf80     BaseLib:SafeString.obj
 0002:00000fe0       ??_C@_0DN@DLAADCJE@?$CILength?5?$DM?$DN?5?$CI_gPcd_FixedAtBuild_@ 000000000001bfe0     BaseLib:SafeString.obj
 0002:00001020       ??_C@_0N@KGHEHMDL@Divisor?5?$CB?$DN?50@ 000000000001c020     BaseLib:DivU64x32.obj
 0002:00001030       ??_C@_0BN@COECPDCC@gImageHandle?5?$CB?$DN?5?$CI?$CIvoid?5?$CK?$CJ?50?$CJ@ 000000000001c030     UefiBootServicesTableLib:UefiBootServicesTableLib.obj
 0002:00001050       ??_C@_0EL@ODFJBOBF@c?3?2edk2?2MdePkg?2Library?2UefiBoot@ 000000000001c050     UefiBootServicesTableLib:UefiBootServicesTableLib.obj
 0002:000010a0       ??_C@_0BE@DGNHAHIL@gST?5?$CB?$DN?5?$CI?$CIvoid?5?$CK?$CJ?50?$CJ@ 000000000001c0a0     UefiBootServicesTableLib:UefiBootServicesTableLib.obj
 0002:000010b8       ??_C@_0BE@BDFJLGLN@gBS?5?$CB?$DN?5?$CI?$CIvoid?5?$CK?$CJ?50?$CJ@ 000000000001c0b8     UefiBootServicesTableLib:UefiBootServicesTableLib.obj
 0002:000010d0       ??_C@_0EF@NBCCMJKB@c?3?2edk2?2MdePkg?2Library?2UefiMemo@ 000000000001c0d0     UefiMemoryAllocationLib:MemoryAllocationLib.obj
 0002:00001118       ??_C@_0DP@CGKEPFGH@AllocationSize?5?$DM?$DN?5?$CI0xFFFFFFFFFF@ 000000000001c118     UefiMemoryAllocationLib:MemoryAllocationLib.obj
 0002:00001160       ??_C@_0EP@BCAOHHL@c?3?2edk2?2MdePkg?2Library?2UefiDevi@ 000000000001c160     UefiDevicePathLibDevicePathProtocol:UefiDevicePathLib.obj
 0002:000011b0       ??_C@_0DC@CNNBPJA@mDevicePathLibDevicePathUtiliti@ 000000000001c1b0     UefiDevicePathLibDevicePathProtocol:UefiDevicePathLib.obj
 0002:000011e8       ??_C@_0BF@CBLMFKOC@Node?5?$CB?$DN?5?$CI?$CIvoid?5?$CK?$CJ?50?$CJ@ 000000000001c1e8     UefiDevicePathLibDevicePathProtocol:UefiDevicePathLib.obj
 0002:00001200       ??_C@_0BE@OBDFIHND@gRT?5?$CB?$DN?5?$CI?$CIvoid?5?$CK?$CJ?50?$CJ@ 000000000001c200     UefiRuntimeServicesTableLib:UefiRuntimeServicesTableLib.obj
 0002:00001220       ??_C@_0FB@NIMBGODD@c?3?2edk2?2MdePkg?2Library?2UefiRunt@ 000000000001c220     UefiRuntimeServicesTableLib:UefiRuntimeServicesTableLib.obj
 0002:00001278       ??_C@_0BK@PPOBBAMB@TableGuid?5?$CB?$DN?5?$CI?$CIvoid?5?$CK?$CJ?50?$CJ@ 000000000001c278     UefiLib:UefiLib.obj
 0002:00001298       ??_C@_0CJ@PFEGNAHL@c?3?2edk2?2MdePkg?2Library?2UefiLib?2@ 000000000001c298     UefiLib:UefiLib.obj
 0002:000012c8       ??_C@_0BG@JDKEGFNB@Table?5?$CB?$DN?5?$CI?$CIvoid?5?$CK?$CJ?50?$CJ@ 000000000001c2c8     UefiLib:UefiLib.obj
 0002:000012e0       ??_C@_0BN@HHGHCLME@ProtocolGuid?5?$CB?$DN?5?$CI?$CIvoid?5?$CK?$CJ?50?$CJ@ 000000000001c2e0     UefiLib:UefiLib.obj
 0002:00001300       ??_C@_0DB@DDNPJJP@c?3?2edk2?2MdePkg?2Library?2UefiLib?2@ 000000000001c300     UefiLib:UefiDriverModel.obj
 0002:00001338       ??_C@_0CO@FMFOGLOO@c?3?2edk2?2MdePkg?2Library?2UefiLib?2@ 000000000001c338     UefiLib:UefiLibPrint.obj
 0002:00001368       ??_C@_0BI@DIKLKBJC@Console?5?$CB?$DN?5?$CI?$CIvoid?5?$CK?$CJ?50?$CJ@ 000000000001c368     UefiLib:UefiLibPrint.obj
 0002:00001380       ??_C@_0CK@GGFNJPAK@c?3?2edk2?2MdePkg?2Library?2DxeHobLi@ 000000000001c380     DxeHobLib:HobLib.obj
 0002:000013b0       ??_C@_0BJ@OBFMLLDO@mHobList?5?$CB?$DN?5?$CI?$CIvoid?5?$CK?$CJ?50?$CJ@ 000000000001c3b0     DxeHobLib:HobLib.obj
 0002:000013d0       ??_C@_0BJ@NOLLDKJB@HobStart?5?$CB?$DN?5?$CI?$CIvoid?5?$CK?$CJ?50?$CJ@ 000000000001c3d0     DxeHobLib:HobLib.obj
 0002:000013f0       ??_C@_1BC@DPOIABCP@?$AAE?$AAF?$AAI?$AAD?$AAe?$AAb?$AAu?$AAg@ 000000000001c3f0     DxeDebugPrintErrorLevelLib:DxeDebugPrintErrorLevelLib.obj
 0002:00001408       ??_C@_0DD@KHCJANAG@c?3?2edk2?2MdeModulePkg?2Library?2Dx@ 000000000001c408     DxeNetLib:DxeNetLib.obj
 0002:00001440       ??_C@_0N@NMJPNKHJ@NetMask?5?$CB?$DN?50@ 000000000001c440     DxeNetLib:DxeNetLib.obj
 0002:00001450       ??_C@_0EG@FMMHPKDI@?$CIServiceBindingGuid?5?$CB?$DN?5?$CI?$CIvoid?5?$CK@ 000000000001c450     DxeNetLib:DxeNetLib.obj
 0002:00001498       ??_C@_0CD@PCCGAHJM@ServiceBindingGuid?5?$CB?$DN?5?$CI?$CIvoid?5?$CK?$CJ@ 000000000001c498     DxeNetLib:DxeNetLib.obj
 0002:000014c0       ??_C@_0BN@NHNKBDLL@MediaPresent?5?$CB?$DN?5?$CI?$CIvoid?5?$CK?$CJ?50?$CJ@ 000000000001c4c0     DxeNetLib:DxeNetLib.obj
 0002:000014e0       ??_C@_0BM@CPKMECHF@MCastFilter?5?$CB?$DN?5?$CI?$CIvoid?5?$CK?$CJ?50?$CJ@ 000000000001c4e0     DxeNetLib:DxeNetLib.obj
 0002:00001500       ??_C@_0BL@DHOPNPCL@SystemGuid?5?$CB?$DN?5?$CI?$CIvoid?5?$CK?$CJ?50?$CJ@ 000000000001c500     DxeNetLib:DxeNetLib.obj
 0002:00001520       ??_C@_0DA@FEJKJGCA@c?3?2edk2?2MdeModulePkg?2Library?2Dx@ 000000000001c520     DxeDpcLib:DpcLib.obj
 0002:00001550       ??_C@_0EK@NEAGPEKB@c?3?2edk2?2MdeModulePkg?2Library?2Dx@ 000000000001c550     DxeReportStatusCodeLib:ReportStatusCodeLib.obj
 0002:000015a0       ??_C@_0DN@HHIHPHHB@?$CB?$CI?$CIExtendedData?5?$DN?$DN?5?$CI?$CIvoid?5?$CK?$CJ?50?$CJ@ 000000000001c5a0     DxeReportStatusCodeLib:ReportStatusCodeLib.obj
 0002:000015e0       ??_C@_0DN@BBBIFINB@?$CB?$CI?$CIExtendedData?5?$CB?$DN?5?$CI?$CIvoid?5?$CK?$CJ?50?$CJ@ 000000000001c5e0     DxeReportStatusCodeLib:ReportStatusCodeLib.obj
 0002:00001620       ??_C@_0DI@MIEIGAOH@Status?5code?5extended?5data?5is?5to@ 000000000001c620     DxeReportStatusCodeLib:ReportStatusCodeLib.obj
 0002:00001658       ??_C@_0CL@COEFNOFM@c?3?2edk2?2MdePkg?2Library?2BaseLib?2@ 000000000001c658     BaseLib:Unaligned.obj
 0002:00001688       ??_C@_0CI@BGLNHBLM@?$CI?$CI?$CIUINTN?$CJ?5?$CIStartOfBuffer?$CJ?$CJ?5?$CG?50x@ 000000000001c688     BasePrintLib:PrintLib.obj
 0002:000016b0       ??_C@_0CP@FCAPPOBN@c?3?2edk2?2MdePkg?2Library?2BasePrin@ 000000000001c6b0     BasePrintLib:PrintLib.obj
 0002:000016e0       ??_C@_07PBILKAFL@Success@  000000000001c6e0     BasePrintLib:PrintLibInternal.obj
 0002:000016e8       ??_C@_0BG@CFJMNNJK@Warning?5Unknown?5Glyph@ 000000000001c6e8     BasePrintLib:PrintLibInternal.obj
 0002:00001700       ??_C@_0BH@GKKCJEPJ@Warning?5Delete?5Failure@ 000000000001c700     BasePrintLib:PrintLibInternal.obj
 0002:00001718       ??_C@_0BG@ECIJMOED@Warning?5Write?5Failure@ 000000000001c718     BasePrintLib:PrintLibInternal.obj
 0002:00001730       ??_C@_0BJ@ODIPDGHB@Warning?5Buffer?5Too?5Small@ 000000000001c730     BasePrintLib:PrintLibInternal.obj
 0002:00001750       ??_C@_0BD@IFJNJCCO@Warning?5Stale?5Data@ 000000000001c750     BasePrintLib:PrintLibInternal.obj
 0002:00001768       ??_C@_0L@PLPBEPPC@Load?5Error@ 000000000001c768     BasePrintLib:PrintLibInternal.obj
 0002:00001778       ??_C@_0BC@HOFHKGJN@Invalid?5Parameter@ 000000000001c778     BasePrintLib:PrintLibInternal.obj
 0002:00001790       ??_C@_0M@BEECMOIL@Unsupported@ 000000000001c790     BasePrintLib:PrintLibInternal.obj
 0002:000017a0       ??_C@_0BA@FLNMPMCF@Bad?5Buffer?5Size@ 000000000001c7a0     BasePrintLib:PrintLibInternal.obj
 0002:000017b0       ??_C@_0BB@EGELJFOB@Buffer?5Too?5Small@ 000000000001c7b0     BasePrintLib:PrintLibInternal.obj
 0002:000017c8       ??_C@_09NKFGCIPN@Not?5Ready@ 000000000001c7c8     BasePrintLib:PrintLibInternal.obj
 0002:000017d8       ??_C@_0N@HHEABDHO@Device?5Error@ 000000000001c7d8     BasePrintLib:PrintLibInternal.obj
 0002:000017e8       ??_C@_0BA@LNEDDFNB@Write?5Protected@ 000000000001c7e8     BasePrintLib:PrintLibInternal.obj
 0002:000017f8       ??_C@_0BB@GOILNEAA@Out?5of?5Resources@ 000000000001c7f8     BasePrintLib:PrintLibInternal.obj
 0002:00001810       ??_C@_0P@EIOJGIF@Volume?5Corrupt@ 000000000001c810     BasePrintLib:PrintLibInternal.obj
 0002:00001820       ??_C@_0M@HDLEPOFA@Volume?5Full@ 000000000001c820     BasePrintLib:PrintLibInternal.obj
 0002:00001830       ??_C@_08KEGAJDNN@No?5Media@ 000000000001c830     BasePrintLib:PrintLibInternal.obj
 0002:00001840       ??_C@_0O@JNCJKCCD@Media?5changed@ 000000000001c840     BasePrintLib:PrintLibInternal.obj
 0002:00001850       ??_C@_09CFCBFJND@Not?5Found@ 000000000001c850     BasePrintLib:PrintLibInternal.obj
 0002:00001860       ??_C@_0O@NFHOBIDO@Access?5Denied@ 000000000001c860     BasePrintLib:PrintLibInternal.obj
 0002:00001870       ??_C@_0M@ENKCBFEP@No?5Response@ 000000000001c870     BasePrintLib:PrintLibInternal.obj
 0002:00001880       ??_C@_0L@IFPBNFC@No?5mapping@ 000000000001c880     BasePrintLib:PrintLibInternal.obj
 0002:00001890       ??_C@_08PAFJCNGP@Time?5out@ 000000000001c890     BasePrintLib:PrintLibInternal.obj
 0002:000018a0       ??_C@_0M@DCJFAFHJ@Not?5started@ 000000000001c8a0     BasePrintLib:PrintLibInternal.obj
 0002:000018b0       ??_C@_0BA@IGIBFFPH@Already?5started@ 000000000001c8b0     BasePrintLib:PrintLibInternal.obj
 0002:000018c0       ??_C@_07LCKDCBKK@Aborted@  000000000001c8c0     BasePrintLib:PrintLibInternal.obj
 0002:000018c8       ??_C@_0L@LKIFCMNO@ICMP?5Error@ 000000000001c8c8     BasePrintLib:PrintLibInternal.obj
 0002:000018d8       ??_C@_0L@DJKNJKHM@TFTP?5Error@ 000000000001c8d8     BasePrintLib:PrintLibInternal.obj
 0002:000018e8       ??_C@_0P@NCJHBCLM@Protocol?5Error@ 000000000001c8e8     BasePrintLib:PrintLibInternal.obj
 0002:000018f8       ??_C@_0BF@EHOBGFMI@Incompatible?5Version@ 000000000001c8f8     BasePrintLib:PrintLibInternal.obj
 0002:00001910       ??_C@_0BD@KHMPCIOG@Security?5Violation@ 000000000001c910     BasePrintLib:PrintLibInternal.obj
 0002:00001928       ??_C@_09BOMAGJEG@CRC?5Error@ 000000000001c928     BasePrintLib:PrintLibInternal.obj
 0002:00001938       ??_C@_0N@JEJDHPO@End?5of?5Media@ 000000000001c938     BasePrintLib:PrintLibInternal.obj
 0002:00001948       ??_C@_0O@NMJOLAMF@Reserved?5?$CI29?$CJ@ 000000000001c948     BasePrintLib:PrintLibInternal.obj
 0002:00001958       ??_C@_0O@GLPDOMCP@Reserved?5?$CI30?$CJ@ 000000000001c958     BasePrintLib:PrintLibInternal.obj
 0002:00001968       ??_C@_0M@FKGOBENP@End?5of?5File@ 000000000001c968     BasePrintLib:PrintLibInternal.obj
 0002:00001978       ??_C@_0BB@KFJAMCOC@Invalid?5Language@ 000000000001c978     BasePrintLib:PrintLibInternal.obj
 0002:00001990       ??_C@_0BB@MFGDFIJM@Compromised?5Data@ 000000000001c990     BasePrintLib:PrintLibInternal.obj
 0002:000019a8       ??_C@_0DH@DJIHJFON@c?3?2edk2?2MdePkg?2Library?2BasePrin@ 000000000001c9a8     BasePrintLib:PrintLibInternal.obj
 0002:000019e0       ??_C@_0EB@HDGIDCIO@?$CIBufferSize?5?$DM?$DN?5?$CI_gPcd_FixedAtBu@ 000000000001c9e0     BasePrintLib:PrintLibInternal.obj
 0002:00001a28       ??_C@_0BJ@PPAKKDJG@?$CIFormat?5?$CB?$DN?5?$CI?$CIvoid?5?$CK?$CJ?50?$CJ?$CJ@ 000000000001ca28     BasePrintLib:PrintLibInternal.obj
 0002:00001a50       ??_C@_0ED@LPDDCECB@?$CIBufferSize?5?$DM?$DN?5?$CI_gPcd_FixedAtBu@ 000000000001ca50     BasePrintLib:PrintLibInternal.obj
 0002:00001aa0       ??_C@_0IM@BFJJFLGB@?$CIStrnLenS?5?$CI?$CICHAR16?5?$CK?$CJFormat?0?5?$CI_@ 000000000001caa0     BasePrintLib:PrintLibInternal.obj
 0002:00001b30       ??_C@_0ID@PLGJGION@?$CIAsciiStrnLenS?5?$CIFormat?0?5?$CI_gPcd_@ 000000000001cb30     BasePrintLib:PrintLibInternal.obj
 0002:00001bb8       ??_C@_0O@MLOLIMFM@?$DMnull?5string?$DO@ 000000000001cbb8     BasePrintLib:PrintLibInternal.obj
 0002:00001bc8       ??_C@_0M@BJJDNPHK@?$DMnull?5guid?$DO@ 000000000001cbc8     BasePrintLib:PrintLibInternal.obj
 0002:00001bd8       ??_C@_0DB@PMLHLBMO@?$CF08x?9?$CF04x?9?$CF04x?9?$CF02x?$CF02x?9?$CF02x?$CF02@ 000000000001cbd8     BasePrintLib:PrintLibInternal.obj
 0002:00001c10       ??_C@_0M@LHGBCIKM@?$DMnull?5time?$DO@ 000000000001cc10     BasePrintLib:PrintLibInternal.obj
 0002:00001c20       ??_C@_0BK@FCPKCIDD@?$CF02d?1?$CF02d?1?$CF04d?5?5?$CF02d?3?$CF02d@ 000000000001cc20     BasePrintLib:PrintLibInternal.obj
 0002:00001c3c       ??_C@_04JIMNDDED@?$CF08X@  000000000001cc3c     BasePrintLib:PrintLibInternal.obj
 0002:00001c44       ??_C@_02PCIJFNDE@?$AN?6@   000000000001cc44     BasePrintLib:PrintLibInternal.obj
 0002:00001c48       ??_C@_01LIIJDEN@?$AN@      000000000001cc48     BasePrintLib:PrintLibInternal.obj
 0002:00001c50       ??_C@_0DE@PLOFBNJA@c?3?2edk2?2MdePkg?2Library?2BaseLib?2@ 000000000001cc50     BaseLib:DivU64x32Remainder.obj
 0003:00000000       gEfiLoadedImageProtocolGuid 000000000001d000     UefiPxe4BcDxe:AutoGen.obj
 0003:00000010       gEfiStatusCodeSpecificDataGuid 000000000001d010     UefiPxe4BcDxe:AutoGen.obj
 0003:00000020       gEfiDriverDiagnostics2ProtocolGuid 000000000001d020     UefiPxe4BcDxe:AutoGen.obj
 0003:00000030       gEfiGlobalVariableGuid     000000000001d030     UefiPxe4BcDxe:AutoGen.obj
 0003:00000040       gEfiStatusCodeRuntimeProtocolGuid 000000000001d040     UefiPxe4BcDxe:AutoGen.obj
 0003:00000050       gEfiGenericVariableGuid    000000000001d050     UefiPxe4BcDxe:AutoGen.obj
 0003:00000060       gEfiDriverDiagnosticsProtocolGuid 000000000001d060     UefiPxe4BcDxe:AutoGen.obj
 0003:00000070       gEfiPxeBaseCodeProtocolGuid 000000000001d070     UefiPxe4BcDxe:AutoGen.obj
 0003:00000080       gEfiMtftp4ProtocolGuid     000000000001d080     UefiPxe4BcDxe:AutoGen.obj
 0003:00000090       gEfiComponentName2ProtocolGuid 000000000001d090     UefiPxe4BcDxe:AutoGen.obj
 0003:000000a0       gEfiAdapterInformationProtocolGuid 000000000001d0a0     UefiPxe4BcDxe:AutoGen.obj
 0003:000000b0       gEfiSimpleTextOutProtocolGuid 000000000001d0b0     UefiPxe4BcDxe:AutoGen.obj
 0003:000000c0       gEfiLoadFileProtocolGuid   000000000001d0c0     UefiPxe4BcDxe:AutoGen.obj
 0003:000000d0       gEfiDriverConfiguration2ProtocolGuid 000000000001d0d0     UefiPxe4BcDxe:AutoGen.obj
 0003:000000e0       gEfiNetworkInterfaceIdentifierProtocolGuid_31 000000000001d0e0     UefiPxe4BcDxe:AutoGen.obj
 0003:000000f0       gEfiDhcp4ServiceBindingProtocolGuid 000000000001d0f0     UefiPxe4BcDxe:AutoGen.obj
 0003:00000100       gEfiDevicePathProtocolGuid 000000000001d100     UefiPxe4BcDxe:AutoGen.obj
 0003:00000110       gEfiSimpleNetworkProtocolGuid 000000000001d110     UefiPxe4BcDxe:AutoGen.obj
 0003:00000120       gEfiDevicePathToTextProtocolGuid 000000000001d120     UefiPxe4BcDxe:AutoGen.obj
 0003:00000130       gEfiPxeBaseCodeCallbackProtocolGuid 000000000001d130     UefiPxe4BcDxe:AutoGen.obj
 0003:00000140       gEfiUdp4ServiceBindingProtocolGuid 000000000001d140     UefiPxe4BcDxe:AutoGen.obj
 0003:00000150       gEfiStatusCodeDataTypeDebugGuid 000000000001d150     UefiPxe4BcDxe:AutoGen.obj
 0003:00000160       gEfiIp4Config2ProtocolGuid 000000000001d160     UefiPxe4BcDxe:AutoGen.obj
 0003:00000170       gEfiDevicePathUtilitiesProtocolGuid 000000000001d170     UefiPxe4BcDxe:AutoGen.obj
 0003:00000180       gEfiIp4ServiceBindingProtocolGuid 000000000001d180     UefiPxe4BcDxe:AutoGen.obj
 0003:00000190       gEfiDevicePathFromTextProtocolGuid 000000000001d190     UefiPxe4BcDxe:AutoGen.obj
 0003:000001a0       gEfiGraphicsOutputProtocolGuid 000000000001d1a0     UefiPxe4BcDxe:AutoGen.obj
 0003:000001b0       gEfiSmbios3TableGuid       000000000001d1b0     UefiPxe4BcDxe:AutoGen.obj
 0003:000001c0       gEfiUgaDrawProtocolGuid    000000000001d1c0     UefiPxe4BcDxe:AutoGen.obj
 0003:000001d0       gEfiSmbiosTableGuid        000000000001d1d0     UefiPxe4BcDxe:AutoGen.obj
 0003:000001e0       gEfiHobListGuid            000000000001d1e0     UefiPxe4BcDxe:AutoGen.obj
 0003:000001f0       gEfiIp4ProtocolGuid        000000000001d1f0     UefiPxe4BcDxe:AutoGen.obj
 0003:00000200       gEfiAdapterInfoMediaStateGuid 000000000001d200     UefiPxe4BcDxe:AutoGen.obj
 0003:00000210       gEfiDriverConfigurationProtocolGuid 000000000001d210     UefiPxe4BcDxe:AutoGen.obj
 0003:00000220       gEfiDebugMaskProtocolGuid  000000000001d220     UefiPxe4BcDxe:AutoGen.obj
 0003:00000230       gEfiManagedNetworkServiceBindingProtocolGuid 000000000001d230     UefiPxe4BcDxe:AutoGen.obj
 0003:00000240       gEfiMtftp4ServiceBindingProtocolGuid 000000000001d240     UefiPxe4BcDxe:AutoGen.obj
 0003:00000250       gEfiDriverBindingProtocolGuid 000000000001d250     UefiPxe4BcDxe:AutoGen.obj
 0003:00000260       gEfiArpServiceBindingProtocolGuid 000000000001d260     UefiPxe4BcDxe:AutoGen.obj
 0003:00000270       gEfiUdp4ProtocolGuid       000000000001d270     UefiPxe4BcDxe:AutoGen.obj
 0003:00000280       gEfiComponentNameProtocolGuid 000000000001d280     UefiPxe4BcDxe:AutoGen.obj
 0003:00000290       gEfiDpcProtocolGuid        000000000001d290     UefiPxe4BcDxe:AutoGen.obj
 0003:000002a0       gEfiCallerIdGuid           000000000001d2a0     UefiPxe4BcDxe:AutoGen.obj
 0003:000002b0       gEfiDhcp4ProtocolGuid      000000000001d2b0     UefiPxe4BcDxe:AutoGen.obj
 0003:000002c0       gEfiManagedNetworkProtocolGuid 000000000001d2c0     UefiPxe4BcDxe:AutoGen.obj
 0003:000002d0       gEfiArpProtocolGuid        000000000001d2d0     UefiPxe4BcDxe:AutoGen.obj
 0003:000002e0       gEfiHiiFontProtocolGuid    000000000001d2e0     UefiPxe4BcDxe:AutoGen.obj
 0003:000002f0       gPxeBcDriverBinding        000000000001d2f0     UefiPxe4BcDxe:PxeBcDriver.obj
 0003:00000320       mPxeBcProtocolTemplate     000000000001d320     UefiPxe4BcDxe:PxeBcImpl.obj
 0003:00000390       mLoadFileProtocolTemplate  000000000001d390     UefiPxe4BcDxe:PxeBcImpl.obj
 0003:00000398       mPxeBcCallBackTemplate     000000000001d398     UefiPxe4BcDxe:PxeBcImpl.obj
 0003:000003a8       mPxeDhcpTimeout            000000000001d3a8     UefiPxe4BcDxe:PxeBcImpl.obj
 0003:000003b8       gPxeBcComponentName2       000000000001d3b8     UefiPxe4BcDxe:ComponentName.obj
 0003:000003d0       gPxeBcComponentName        000000000001d3d0     UefiPxe4BcDxe:ComponentName.obj
 0003:000003e8       mDebugMaskProtocol         000000000001d3e8     DxeDebugPrintErrorLevelLib:DxeDebugPrintErrorLevelLib.obj
 0003:00000400       mPxeBcDriverNameTable      000000000001d400     UefiPxe4BcDxe:ComponentName.obj
 0003:00000420       mPxeBcControllerNameTable  000000000001d420     UefiPxe4BcDxe:ComponentName.obj
 0003:00000440       mEfiColors                 000000000001d440     UefiLib:UefiLibPrint.obj
 0003:00000480       mSyslogDstMac              000000000001d480     DxeNetLib:DxeNetLib.obj
 0003:00000488       mNetVlanDevicePathTemplate 000000000001d488     DxeNetLib:DxeNetLib.obj
 0003:00000490       gST                        000000000001d490     UefiBootServicesTableLib:UefiBootServicesTableLib.obj
 0003:00000498       gBS                        000000000001d498     UefiBootServicesTableLib:UefiBootServicesTableLib.obj
 0003:000004a0       gImageHandle               000000000001d4a0     UefiBootServicesTableLib:UefiBootServicesTableLib.obj
 0003:000004a8       mDevicePathLibDevicePathUtilities 000000000001d4a8     UefiDevicePathLibDevicePathProtocol:UefiDevicePathLib.obj
 0003:000004b0       gRT                        000000000001d4b0     UefiRuntimeServicesTableLib:UefiRuntimeServicesTableLib.obj
 0003:000004b8       mHobList                   000000000001d4b8     DxeHobLib:HobLib.obj
 0003:000004c0       mSystemTable               000000000001d4c0     DxeDebugPrintErrorLevelLib:DxeDebugPrintErrorLevelLib.obj
 0003:000004c8       mDebugPrintErrorLevel      000000000001d4c8     DxeDebugPrintErrorLevelLib:DxeDebugPrintErrorLevelLib.obj
 0003:000004cc       mGlobalErrorLevelInitialized 000000000001d4cc     DxeDebugPrintErrorLevelLib:DxeDebugPrintErrorLevelLib.obj
 0003:000004d0       mZeroIp4Addr               000000000001d4d0     DxeNetLib:DxeNetLib.obj
 0003:000004d8       mReportStatusCodeLibStatusCodeProtocol 000000000001d4d8     DxeReportStatusCodeLib:ReportStatusCodeLib.obj
 0003:000004e0       mDpc                       000000000001d4e0     <common>

 entry point at        0001:000002d0

 Static symbols

 0000:fffee000       .debug$S                   0000000000010000     UefiPxe4BcDxe.exp
 0001:0000001a       InternalMemCopyMem.0       000000000001101a     BaseMemoryLibOptDxe:CopyMem.obj
 0001:00000032       InternalMemCopyMem.1       0000000000011032     BaseMemoryLibOptDxe:CopyMem.obj
 0001:00000045       InternalMemCopyMem.2       0000000000011045     BaseMemoryLibOptDxe:CopyMem.obj
 0001:00000062       @CopyBackward              0000000000011062     BaseMemoryLibOptDxe:CopyMem.obj
 0001:0000006b       @CopyBytes                 000000000001106b     BaseMemoryLibOptDxe:CopyMem.obj
 0004:00000000       .edata                     000000000001e000     UefiPxe4BcDxe.exp
 0004:00000028       rgpv                       000000000001e028     UefiPxe4BcDxe.exp
 0004:0000002c       rgszName                   000000000001e02c     UefiPxe4BcDxe.exp
 0004:00000030       rgwOrd                     000000000001e030     UefiPxe4BcDxe.exp
 0004:00000032       szName                     000000000001e032     UefiPxe4BcDxe.exp
 0004:00000044       $N00001                    000000000001e044     UefiPxe4BcDxe.exp
 0005:00000000       $pdata$_ModuleEntryPoint   000000000001f000     UefiDriverEntryPoint:DriverEntryPoint.obj
 0005:0000000c       $pdata$_DriverUnloadHandler 000000000001f00c     UefiDriverEntryPoint:DriverEntryPoint.obj
 0005:00000018       $pdata$ProcessLibraryDestructorList 000000000001f018     UefiPxe4BcDxe:AutoGen.obj
 0005:00000024       $pdata$ProcessLibraryConstructorList 000000000001f024     UefiPxe4BcDxe:AutoGen.obj
 0005:00000030       $pdata$PxeBcDriverBindingStop 000000000001f030     UefiPxe4BcDxe:PxeBcDriver.obj
 0005:0000003c       $pdata$PxeBcDriverBindingStart 000000000001f03c     UefiPxe4BcDxe:PxeBcDriver.obj
 0005:00000048       $pdata$PxeBcDriverBindingSupported 000000000001f048     UefiPxe4BcDxe:PxeBcDriver.obj
 0005:00000054       $pdata$EfiPxeLoadFile      000000000001f054     UefiPxe4BcDxe:PxeBcImpl.obj
 0005:00000060       $pdata$DiscoverBootFile    000000000001f060     UefiPxe4BcDxe:PxeBcImpl.obj
 0005:0000006c       $pdata$EfiPxeLoadFileCallback 000000000001f06c     UefiPxe4BcDxe:PxeBcImpl.obj
 0005:00000078       $pdata$EfiPxeBcSetPackets  000000000001f078     UefiPxe4BcDxe:PxeBcImpl.obj
 0005:00000084       $pdata$EfiPxeBcSetStationIP 000000000001f084     UefiPxe4BcDxe:PxeBcImpl.obj
 0005:00000090       $pdata$EfiPxeBcSetParameters 000000000001f090     UefiPxe4BcDxe:PxeBcImpl.obj
 0005:0000009c       $pdata$EfiPxeBcArp         000000000001f09c     UefiPxe4BcDxe:PxeBcImpl.obj
 0005:000000a8       $pdata$EfiPxeBcSetIpFilter 000000000001f0a8     UefiPxe4BcDxe:PxeBcImpl.obj
 0005:000000b4       $pdata$EfiPxeBcUdpRead     000000000001f0b4     UefiPxe4BcDxe:PxeBcImpl.obj
 0005:000000c0       $pdata$CheckIpByFilter     000000000001f0c0     UefiPxe4BcDxe:PxeBcImpl.obj
 0005:000000cc       $pdata$EfiPxeBcUdpWrite    000000000001f0cc     UefiPxe4BcDxe:PxeBcImpl.obj
 0005:000000d8       $pdata$EfiPxeBcMtftp       000000000001f0d8     UefiPxe4BcDxe:PxeBcImpl.obj
 0005:000000e4       $pdata$EfiPxeBcDiscover    000000000001f0e4     UefiPxe4BcDxe:PxeBcImpl.obj
 0005:000000f0       $pdata$EfiPxeBcDhcp        000000000001f0f0     UefiPxe4BcDxe:PxeBcImpl.obj
 0005:000000fc       $pdata$EfiPxeBcStop        000000000001f0fc     UefiPxe4BcDxe:PxeBcImpl.obj
 0005:00000108       $pdata$EfiPxeBcStart       000000000001f108     UefiPxe4BcDxe:PxeBcImpl.obj
 0005:00000114       $pdata$IcmpErrorListenHandlerDpc 000000000001f114     UefiPxe4BcDxe:PxeBcImpl.obj
 0005:00000120       $pdata$FindInArpCache      000000000001f120     UefiPxe4BcDxe:PxeBcImpl.obj
 0005:0000012c       $pdata$UpdateArpCache      000000000001f12c     UefiPxe4BcDxe:PxeBcImpl.obj
 0005:00000138       $pdata$PxeBcComponentNameGetControllerName 000000000001f138     UefiPxe4BcDxe:ComponentName.obj
 0005:00000144       $pdata$PxeBcComponentNameGetDriverName 000000000001f144     UefiPxe4BcDxe:ComponentName.obj
 0005:00000150       $pdata$PxeBcDisplayBootItem 000000000001f150     UefiPxe4BcDxe:PxeBcDhcp.obj
 0005:0000015c       $pdata$PxeBcParseVendorOptions 000000000001f15c     UefiPxe4BcDxe:PxeBcDhcp.obj
 0005:00000168       $pdata$PxeBcSelectOffer    000000000001f168     UefiPxe4BcDxe:PxeBcDhcp.obj
 0005:00000174       $pdata$PxeBcCacheDhcpOffer 000000000001f174     UefiPxe4BcDxe:PxeBcDhcp.obj
 0005:00000180       $pdata$PxeBcTryBinl        000000000001f180     UefiPxe4BcDxe:PxeBcDhcp.obj
 0005:0000018c       $pdata$PxeBcCopyProxyOffer 000000000001f18c     UefiPxe4BcDxe:PxeBcDhcp.obj
 0005:00000198       $pdata$PxeBcCopyEfiDhcp4Packet 000000000001f198     UefiPxe4BcDxe:PxeBcDhcp.obj
 0005:000001a4       $pdata$PxeBcCheckSelectedOffer 000000000001f1a4     UefiPxe4BcDxe:PxeBcDhcp.obj
 0005:000001b0       $pdata$PxeBcBuildDhcpOptions 000000000001f1b0     UefiPxe4BcDxe:PxeBcDhcp.obj
 0005:000001bc       $pdata$PxeBcSelectBootMenu 000000000001f1bc     UefiPxe4BcDxe:PxeBcDhcp.obj
 0005:000001c8       $pdata$PxeBcDiscvBootService 000000000001f1c8     UefiPxe4BcDxe:PxeBcDhcp.obj
 0005:000001d4       $pdata$PxeBcParseCachedDhcpPacket 000000000001f1d4     UefiPxe4BcDxe:PxeBcDhcp.obj
 0005:000001e0       $pdata$PxeBcDhcpCallBack   000000000001f1e0     UefiPxe4BcDxe:PxeBcDhcp.obj
 0005:000001ec       $pdata$PxeBcSelectBootPrompt 000000000001f1ec     UefiPxe4BcDxe:PxeBcDhcp.obj
 0005:000001f8       $pdata$PxeBcCheckPacket    000000000001f1f8     UefiPxe4BcDxe:PxeBcMtftp.obj
 0005:00000204       $pdata$PxeBcTftpReadDirectory 000000000001f204     UefiPxe4BcDxe:PxeBcMtftp.obj
 0005:00000210       $pdata$PxeBcTftpReadFile   000000000001f210     UefiPxe4BcDxe:PxeBcMtftp.obj
 0005:0000021c       $pdata$PxeBcTftpGetFileSize 000000000001f21c     UefiPxe4BcDxe:PxeBcMtftp.obj
 0005:00000228       $pdata$PxeBcTftpWriteFile  000000000001f228     UefiPxe4BcDxe:PxeBcMtftp.obj
 0005:00000234       $pdata$UtoA10              000000000001f234     UefiPxe4BcDxe:PxeBcSupport.obj
 0005:00000240       $pdata$PxeBcConfigureUdpWriteInstance 000000000001f240     UefiPxe4BcDxe:PxeBcSupport.obj
 0005:0000024c       $pdata$PxeBcShowIp4Addr    000000000001f24c     UefiPxe4BcDxe:PxeBcSupport.obj
 0005:00000258       $pdata$DebugPrint          000000000001f258     PeiDxeDebugLibReportStatusCode:DebugLib.obj
 0005:00000264       $pdata$DebugAssert         000000000001f264     PeiDxeDebugLibReportStatusCode:DebugLib.obj
 0005:00000270       $pdata$CopyMem             000000000001f270     BaseMemoryLibOptDxe:CopyMemWrapper.obj
 0005:0000027c       $pdata$ZeroMem             000000000001f27c     BaseMemoryLibOptDxe:ZeroMemWrapper.obj
 0005:00000288       $pdata$CompareMem          000000000001f288     BaseMemoryLibOptDxe:CompareMemWrapper.obj
 0005:00000294       $pdata$SetMem              000000000001f294     BaseMemoryLibOptDxe:SetMemWrapper.obj
 0005:000002a0       $pdata$AsciiStrLen         000000000001f2a0     BaseLib:String.obj
 0005:000002ac       $pdata$AsciiStrnCmp        000000000001f2ac     BaseLib:String.obj
 0005:000002b8       $pdata$StrnLenS            000000000001f2b8     BaseLib:SafeString.obj
 0005:000002c4       $pdata$AsciiStrnCpyS       000000000001f2c4     BaseLib:SafeString.obj
 0005:000002d0       $pdata$InternalAllocateCopyPool 000000000001f2d0     UefiMemoryAllocationLib:MemoryAllocationLib.obj
 0005:000002dc       $pdata$InternalAllocatePool 000000000001f2dc     UefiMemoryAllocationLib:MemoryAllocationLib.obj
 0005:000002e8       $pdata$AllocateZeroPool    000000000001f2e8     UefiMemoryAllocationLib:MemoryAllocationLib.obj
 0005:000002f4       $pdata$FreePool            000000000001f2f4     UefiMemoryAllocationLib:MemoryAllocationLib.obj
 0005:00000300       $pdata$DevicePathFromHandle 000000000001f300     UefiDevicePathLibDevicePathProtocol:UefiDevicePathLib.obj
 0005:0000030c       $pdata$IsDevicePathEndType 000000000001f30c     UefiDevicePathLibDevicePathProtocol:UefiDevicePathLib.obj
 0005:00000318       $pdata$IsDevicePathEnd     000000000001f318     UefiDevicePathLibDevicePathProtocol:UefiDevicePathLib.obj
 0005:00000324       $pdata$EfiGetSystemConfigurationTable 000000000001f324     UefiLib:UefiLib.obj
 0005:00000330       $pdata$CompareIso639LanguageCode 000000000001f330     UefiLib:UefiLib.obj
 0005:0000033c       $pdata$LookupUnicodeString2 000000000001f33c     UefiLib:UefiLib.obj
 0005:00000348       $pdata$AsciiInternalPrint  000000000001f348     UefiLib:UefiLibPrint.obj
 0005:00000354       $pdata$AsciiPrint          000000000001f354     UefiLib:UefiLibPrint.obj
 0005:00000360       $pdata$GetNextHob          000000000001f360     DxeHobLib:HobLib.obj
 0005:0000036c       $pdata$GetHobList          000000000001f36c     DxeHobLib:HobLib.obj
 0005:00000378       $pdata$GetDebugPrintErrorLevel 000000000001f378     DxeDebugPrintErrorLevelLib:DxeDebugPrintErrorLevelLib.obj
 0005:00000384       $pdata$NetLibDetectMedia   000000000001f384     DxeNetLib:DxeNetLib.obj
 0005:00000390       $pdata$NetLibGetSnpHandle  000000000001f390     DxeNetLib:DxeNetLib.obj
 0005:0000039c       $pdata$NetLibGetSystemGuid 000000000001f39c     DxeNetLib:DxeNetLib.obj
 0005:000003a8       $pdata$NetLibDetectMediaWaitTimeout 000000000001f3a8     DxeNetLib:DxeNetLib.obj
 0005:000003b4       $pdata$NetIp4IsUnicast     000000000001f3b4     DxeNetLib:DxeNetLib.obj
 0005:000003c0       $pdata$NetLibGetNicHandle  000000000001f3c0     DxeNetLib:DxeNetLib.obj
 0005:000003cc       $pdata$NetLibDestroyServiceChild 000000000001f3cc     DxeNetLib:DxeNetLib.obj
 0005:000003d8       $pdata$NetLibCreateServiceChild 000000000001f3d8     DxeNetLib:DxeNetLib.obj
 0005:000003e4       $pdata$InternalReportStatusCode 000000000001f3e4     DxeReportStatusCodeLib:ReportStatusCodeLib.obj
 0005:000003f0       $pdata$ReportStatusCodeEx  000000000001f3f0     DxeReportStatusCodeLib:ReportStatusCodeLib.obj
 0005:000003fc       $pdata$CompareGuid         000000000001f3fc     BaseMemoryLibOptDxe:MemLibGuid.obj
 0005:00000408       $pdata$CopyGuid            000000000001f408     BaseMemoryLibOptDxe:MemLibGuid.obj
 0005:00000414       $pdata$ReadUnaligned64     000000000001f414     BaseLib:Unaligned.obj
 0005:00000420       $pdata$UnicodeVSPrintAsciiFormat 000000000001f420     BasePrintLib:PrintLib.obj
 0005:0000042c       $pdata$BasePrintLibSPrint  000000000001f42c     BasePrintLib:PrintLibInternal.obj
 0005:00000438       $pdata$BasePrintLibValueToString 000000000001f438     BasePrintLib:PrintLibInternal.obj
 0005:00000444       $pdata$BasePrintLibSPrintMarker 000000000001f444     BasePrintLib:PrintLibInternal.obj
 0006:00000000       $unwind$_DriverUnloadHandler 0000000000020000     UefiDriverEntryPoint:DriverEntryPoint.obj
 0006:00000010       $unwind$_ModuleEntryPoint  0000000000020010     UefiDriverEntryPoint:DriverEntryPoint.obj
 0006:00000024       $unwind$ProcessLibraryConstructorList 0000000000020024     UefiPxe4BcDxe:AutoGen.obj
 0006:0000003c       $unwind$InternalAllocatePool 000000000002003c     UefiMemoryAllocationLib:MemoryAllocationLib.obj
 0006:0000003c       $unwind$ProcessLibraryDestructorList 000000000002003c     UefiPxe4BcDxe:AutoGen.obj
 0006:0000003c       $unwind$FreePool           000000000002003c     UefiMemoryAllocationLib:MemoryAllocationLib.obj
 0006:0000003c       $unwind$DevicePathFromHandle 000000000002003c     UefiDevicePathLibDevicePathProtocol:UefiDevicePathLib.obj
 0006:0000003c       $unwind$GetHobList         000000000002003c     DxeHobLib:HobLib.obj
 0006:00000044       $unwind$PxeBcDriverBindingSupported 0000000000020044     UefiPxe4BcDxe:PxeBcDriver.obj
 0006:00000050       $unwind$PxeBcDriverBindingStart 0000000000020050     UefiPxe4BcDxe:PxeBcDriver.obj
 0006:00000070       $unwind$PxeBcDriverBindingStop 0000000000020070     UefiPxe4BcDxe:PxeBcDriver.obj
 0006:00000088       $unwind$UpdateArpCache     0000000000020088     UefiPxe4BcDxe:PxeBcImpl.obj
 0006:00000094       $unwind$FindInArpCache     0000000000020094     UefiPxe4BcDxe:PxeBcImpl.obj
 0006:00000094       $unwind$LookupUnicodeString2 0000000000020094     UefiLib:UefiLib.obj
 0006:00000094       $unwind$AsciiInternalPrint 0000000000020094     UefiLib:UefiLibPrint.obj
 0006:00000094       $unwind$EfiGetSystemConfigurationTable 0000000000020094     UefiLib:UefiLib.obj
 0006:000000ac       $unwind$IcmpErrorListenHandlerDpc 00000000000200ac     UefiPxe4BcDxe:PxeBcImpl.obj
 0006:000000ac       $unwind$PxeBcParseVendorOptions 00000000000200ac     UefiPxe4BcDxe:PxeBcDhcp.obj
 0006:000000c8       $unwind$EfiPxeBcStart      00000000000200c8     UefiPxe4BcDxe:PxeBcImpl.obj
 0006:000000dc       $unwind$EfiPxeBcStop       00000000000200dc     UefiPxe4BcDxe:PxeBcImpl.obj
 0006:000000dc       $unwind$SetMem             00000000000200dc     BaseMemoryLibOptDxe:SetMemWrapper.obj
 0006:000000dc       $unwind$PxeBcCopyProxyOffer 00000000000200dc     UefiPxe4BcDxe:PxeBcDhcp.obj
 0006:000000dc       $unwind$AsciiStrnCmp       00000000000200dc     BaseLib:String.obj
 0006:000000dc       $unwind$PxeBcDisplayBootItem 00000000000200dc     UefiPxe4BcDxe:PxeBcDhcp.obj
 0006:000000dc       $unwind$CopyGuid           00000000000200dc     BaseMemoryLibOptDxe:MemLibGuid.obj
 0006:000000dc       $unwind$NetLibGetNicHandle 00000000000200dc     DxeNetLib:DxeNetLib.obj
 0006:000000dc       $unwind$PxeBcCacheDhcpOffer 00000000000200dc     UefiPxe4BcDxe:PxeBcDhcp.obj
 0006:000000ec       $unwind$EfiPxeBcDhcp       00000000000200ec     UefiPxe4BcDxe:PxeBcImpl.obj
 0006:0000010c       $unwind$EfiPxeBcDiscover   000000000002010c     UefiPxe4BcDxe:PxeBcImpl.obj
 0006:00000124       $unwind$EfiPxeBcMtftp      0000000000020124     UefiPxe4BcDxe:PxeBcImpl.obj
 0006:00000144       $unwind$EfiPxeBcUdpWrite   0000000000020144     UefiPxe4BcDxe:PxeBcImpl.obj
 0006:00000160       $unwind$CheckIpByFilter    0000000000020160     UefiPxe4BcDxe:PxeBcImpl.obj
 0006:00000170       $unwind$EfiPxeBcUdpRead    0000000000020170     UefiPxe4BcDxe:PxeBcImpl.obj
 0006:00000188       $unwind$EfiPxeBcSetIpFilter 0000000000020188     UefiPxe4BcDxe:PxeBcImpl.obj
 0006:000001a0       $unwind$NetLibDestroyServiceChild 00000000000201a0     DxeNetLib:DxeNetLib.obj
 0006:000001a0       $unwind$EfiPxeBcArp        00000000000201a0     UefiPxe4BcDxe:PxeBcImpl.obj
 0006:000001a0       $unwind$NetLibCreateServiceChild 00000000000201a0     DxeNetLib:DxeNetLib.obj
 0006:000001b4       $unwind$EfiPxeBcSetParameters 00000000000201b4     UefiPxe4BcDxe:PxeBcImpl.obj
 0006:000001d0       $unwind$EfiPxeBcSetStationIP 00000000000201d0     UefiPxe4BcDxe:PxeBcImpl.obj
 0006:000001e8       $unwind$EfiPxeBcSetPackets 00000000000201e8     UefiPxe4BcDxe:PxeBcImpl.obj
 0006:000001e8       $unwind$PxeBcParseCachedDhcpPacket 00000000000201e8     UefiPxe4BcDxe:PxeBcDhcp.obj
 0006:000001fc       $unwind$UnicodeVSPrintAsciiFormat 00000000000201fc     BasePrintLib:PrintLib.obj
 0006:000001fc       $unwind$EfiPxeLoadFileCallback 00000000000201fc     UefiPxe4BcDxe:PxeBcImpl.obj
 0006:0000020c       $unwind$DiscoverBootFile   000000000002020c     UefiPxe4BcDxe:PxeBcImpl.obj
 0006:00000224       $unwind$EfiPxeLoadFile     0000000000020224     UefiPxe4BcDxe:PxeBcImpl.obj
 0006:00000240       $unwind$PxeBcComponentNameGetDriverName 0000000000020240     UefiPxe4BcDxe:ComponentName.obj
 0006:00000248       $unwind$PxeBcComponentNameGetControllerName 0000000000020248     UefiPxe4BcDxe:ComponentName.obj
 0006:00000258       $unwind$PxeBcCopyEfiDhcp4Packet 0000000000020258     UefiPxe4BcDxe:PxeBcDhcp.obj
 0006:00000258       $unwind$PxeBcShowIp4Addr   0000000000020258     UefiPxe4BcDxe:PxeBcSupport.obj
 0006:00000258       $unwind$IsDevicePathEnd    0000000000020258     UefiDevicePathLibDevicePathProtocol:UefiDevicePathLib.obj
 0006:00000258       $unwind$CompareIso639LanguageCode 0000000000020258     UefiLib:UefiLib.obj
 0006:00000258       $unwind$ZeroMem            0000000000020258     BaseMemoryLibOptDxe:ZeroMemWrapper.obj
 0006:00000258       $unwind$NetIp4IsUnicast    0000000000020258     DxeNetLib:DxeNetLib.obj
 0006:00000258       $unwind$AsciiStrLen        0000000000020258     BaseLib:String.obj
 0006:00000258       $unwind$InternalAllocateCopyPool 0000000000020258     UefiMemoryAllocationLib:MemoryAllocationLib.obj
 0006:00000264       $unwind$PxeBcTryBinl       0000000000020264     UefiPxe4BcDxe:PxeBcDhcp.obj
 0006:00000278       $unwind$PxeBcCheckSelectedOffer 0000000000020278     UefiPxe4BcDxe:PxeBcDhcp.obj
 0006:00000290       $unwind$CompareGuid        0000000000020290     BaseMemoryLibOptDxe:MemLibGuid.obj
 0006:00000290       $unwind$BasePrintLibValueToString 0000000000020290     BasePrintLib:PrintLibInternal.obj
 0006:00000290       $unwind$AsciiStrnCpyS      0000000000020290     BaseLib:SafeString.obj
 0006:00000290       $unwind$CompareMem         0000000000020290     BaseMemoryLibOptDxe:CompareMemWrapper.obj
 0006:00000290       $unwind$PxeBcSelectOffer   0000000000020290     UefiPxe4BcDxe:PxeBcDhcp.obj
 0006:00000290       $unwind$CopyMem            0000000000020290     BaseMemoryLibOptDxe:CopyMemWrapper.obj
 0006:000002a4       $unwind$PxeBcDhcpCallBack  00000000000202a4     UefiPxe4BcDxe:PxeBcDhcp.obj
 0006:000002b8       $unwind$PxeBcBuildDhcpOptions 00000000000202b8     UefiPxe4BcDxe:PxeBcDhcp.obj
 0006:000002d4       $unwind$PxeBcDiscvBootService 00000000000202d4     UefiPxe4BcDxe:PxeBcDhcp.obj
 0006:000002f0       $unwind$PxeBcSelectBootPrompt 00000000000202f0     UefiPxe4BcDxe:PxeBcDhcp.obj
 0006:00000308       $unwind$PxeBcSelectBootMenu 0000000000020308     UefiPxe4BcDxe:PxeBcDhcp.obj
 0006:00000324       $unwind$InternalReportStatusCode 0000000000020324     DxeReportStatusCodeLib:ReportStatusCodeLib.obj
 0006:00000324       $unwind$PxeBcCheckPacket   0000000000020324     UefiPxe4BcDxe:PxeBcMtftp.obj
 0006:0000033c       $unwind$PxeBcTftpGetFileSize 000000000002033c     UefiPxe4BcDxe:PxeBcMtftp.obj
 0006:00000354       $unwind$PxeBcTftpReadDirectory 0000000000020354     UefiPxe4BcDxe:PxeBcMtftp.obj
 0006:00000354       $unwind$PxeBcTftpReadFile  0000000000020354     UefiPxe4BcDxe:PxeBcMtftp.obj
 0006:00000370       $unwind$PxeBcTftpWriteFile 0000000000020370     UefiPxe4BcDxe:PxeBcMtftp.obj
 0006:00000388       $unwind$PxeBcConfigureUdpWriteInstance 0000000000020388     UefiPxe4BcDxe:PxeBcSupport.obj
 0006:00000388       $unwind$UtoA10             0000000000020388     UefiPxe4BcDxe:PxeBcSupport.obj
 0006:000003a0       $unwind$DebugPrint         00000000000203a0     PeiDxeDebugLibReportStatusCode:DebugLib.obj
 0006:000003b0       $unwind$DebugAssert        00000000000203b0     PeiDxeDebugLibReportStatusCode:DebugLib.obj
 0006:000003cc       $unwind$IsDevicePathEndType 00000000000203cc     UefiDevicePathLibDevicePathProtocol:UefiDevicePathLib.obj
 0006:000003cc       $unwind$NetLibGetSystemGuid 00000000000203cc     DxeNetLib:DxeNetLib.obj
 0006:000003cc       $unwind$AllocateZeroPool   00000000000203cc     UefiMemoryAllocationLib:MemoryAllocationLib.obj
 0006:000003cc       $unwind$GetNextHob         00000000000203cc     DxeHobLib:HobLib.obj
 0006:000003cc       $unwind$ReadUnaligned64    00000000000203cc     BaseLib:Unaligned.obj
 0006:000003cc       $unwind$StrnLenS           00000000000203cc     BaseLib:SafeString.obj
 0006:000003d4       $unwind$AsciiPrint         00000000000203d4     UefiLib:UefiLibPrint.obj
 0006:000003dc       $unwind$GetDebugPrintErrorLevel 00000000000203dc     DxeDebugPrintErrorLevelLib:DxeDebugPrintErrorLevelLib.obj
 0006:000003e4       $unwind$NetLibGetSnpHandle 00000000000203e4     DxeNetLib:DxeNetLib.obj
 0006:000003f0       $unwind$NetLibDetectMedia  00000000000203f0     DxeNetLib:DxeNetLib.obj
 0006:00000408       $unwind$NetLibDetectMediaWaitTimeout 0000000000020408     DxeNetLib:DxeNetLib.obj
 0006:00000420       $unwind$ReportStatusCodeEx 0000000000020420     DxeReportStatusCodeLib:ReportStatusCodeLib.obj
 0006:00000438       $unwind$BasePrintLibSPrintMarker 0000000000020438     BasePrintLib:PrintLibInternal.obj
 0006:00000454       $unwind$BasePrintLibSPrint 0000000000020454     BasePrintLib:PrintLibInternal.obj
