 ArpDxe

 Timestamp is 5c23c399 (Thu Dec 27 02:08:25 2018)

 Preferred load address is 0000000000010000

 Start         Length     Name                   Class
 0001:00000000 00000130H .text                   CODE
 0001:00000130 000041abH .text$mn                CODE
 0002:00000000 000013e4H .rdata                  DATA
 0002:000013e4 00000134H .rdata$zzzdbg           DATA
 0003:00000000 000002f0H .data                   DATA
 0003:000002f0 00000050H .bss                    DATA
 0004:00000000 0000004eH .edata                  DATA
 0005:00000000 00000324H .pdata                  DATA
 0006:00000000 000002d4H .xdata                  DATA

  Address         Publics by Value              Rva+Base               Lib:Object

 0000:00000000       __guard_longjmp_count      0000000000000000     <absolute>
 0000:00000000       __dynamic_value_reloc_table 0000000000000000     <absolute>
 0000:00000000       __hybrid_code_map_count    0000000000000000     <absolute>
 0000:00000000       __guard_longjmp_table      0000000000000000     <absolute>
 0000:00000000       __guard_iat_table          0000000000000000     <absolute>
 0000:00000000       __hybrid_code_map          0000000000000000     <absolute>
 0000:00000000       __hybrid_auxiliary_iat     0000000000000000     <absolute>
 0000:00000000       __guard_iat_count          0000000000000000     <absolute>
 0000:00000000       __volatile_metadata        0000000000000000     <absolute>
 0000:00000000       __guard_fids_count         0000000000000000     <absolute>
 0000:00000000       __enclave_config           0000000000000000     <absolute>
 0000:00000000       __guard_fids_table         0000000000000000     <absolute>
 0000:00000100       __guard_flags              0000000000000100     <absolute>
 0001:00000000       InternalMemCopyMem         0000000000011000     BaseMemoryLibOptDxe:CopyMem.obj
 0001:00000080       InternalMemZeroMem         0000000000011080     BaseMemoryLibOptDxe:ZeroMem.obj
 0001:000000a0       InternalMemCompareMem      00000000000110a0     BaseMemoryLibOptDxe:CompareMem.obj
 0001:000000c0       InternalMemSetMem          00000000000110c0     BaseMemoryLibOptDxe:SetMem.obj
 0001:00000100       InternalMemSetMem64        0000000000011100     BaseMemoryLibOptDxe:SetMem64.obj
 0001:00000120       InternalMemSetMem32        0000000000011120     BaseMemoryLibOptDxe:SetMem32.obj
 0001:00000130       _DriverUnloadHandler       0000000000011130 f   UefiDriverEntryPoint:DriverEntryPoint.obj
 0001:000002d0       _ModuleEntryPoint          00000000000112d0 f   UefiDriverEntryPoint:DriverEntryPoint.obj
 0001:00000404       ProcessLibraryConstructorList 0000000000011404 f   ArpDxe:AutoGen.obj
 0001:00000640       ProcessLibraryDestructorList 0000000000011640 f   ArpDxe:AutoGen.obj
 0001:00000698       ArpCreateService           0000000000011698 f   ArpDxe:ArpDriver.obj
 0001:000008b8       ArpCleanService            00000000000118b8 f   ArpDxe:ArpDriver.obj
 0001:000009c0       ArpDestroyChildEntryInHandleBuffer 00000000000119c0 f   ArpDxe:ArpDriver.obj
 0001:00000a24       ArpDriverBindingSupported  0000000000011a24 f   ArpDxe:ArpDriver.obj
 0001:00000aa8       ArpDriverBindingStart      0000000000011aa8 f   ArpDxe:ArpDriver.obj
 0001:00000b60       ArpDriverBindingStop       0000000000011b60 f   ArpDxe:ArpDriver.obj
 0001:00000d44       ArpServiceBindingCreateChild 0000000000011d44 f   ArpDxe:ArpDriver.obj
 0001:00000f6c       ArpServiceBindingDestroyChild 0000000000011f6c f   ArpDxe:ArpDriver.obj
 0001:00001144       ArpComponentNameGetDriverName 0000000000012144 f   ArpDxe:ComponentName.obj
 0001:00001178       ArpComponentNameGetControllerName 0000000000012178 f   ArpDxe:ComponentName.obj
 0001:00001290       ArpOnFrameRcvdDpc          0000000000012290 f   ArpDxe:ArpImpl.obj
 0001:000015a0       ArpOnFrameRcvd             00000000000125a0 f   ArpDxe:ArpImpl.obj
 0001:000015bc       ArpOnFrameSentDpc          00000000000125bc f   ArpDxe:ArpImpl.obj
 0001:00001634       ArpOnFrameSent             0000000000012634 f   ArpDxe:ArpImpl.obj
 0001:00001650       ArpTimerHandler            0000000000012650 f   ArpDxe:ArpImpl.obj
 0001:00001840       ArpMatchAddress            0000000000012840 f   ArpDxe:ArpImpl.obj
 0001:000018b0       ArpFindNextCacheEntryInTable 00000000000128b0 f   ArpDxe:ArpImpl.obj
 0001:00001940       ArpFindDeniedCacheEntry    0000000000012940 f   ArpDxe:ArpImpl.obj
 0001:00001a04       ArpAllocCacheEntry         0000000000012a04 f   ArpDxe:ArpImpl.obj
 0001:00001aa4       ArpAddressResolved         0000000000012aa4 f   ArpDxe:ArpImpl.obj
 0001:00001b60       ArpFillAddressInCacheEntry 0000000000012b60 f   ArpDxe:ArpImpl.obj
 0001:00001be0       ArpConfigureInstance       0000000000012be0 f   ArpDxe:ArpImpl.obj
 0001:00001d3c       ArpSendFrame               0000000000012d3c f   ArpDxe:ArpImpl.obj
 0001:00001ff8       ArpDeleteCacheEntryInTable 0000000000012ff8 f   ArpDxe:ArpImpl.obj
 0001:000020e0       ArpDeleteCacheEntry        00000000000130e0 f   ArpDxe:ArpImpl.obj
 0001:00002184       ArpCancelRequest           0000000000013184 f   ArpDxe:ArpImpl.obj
 0001:00002260       ArpFindCacheEntry          0000000000013260 f   ArpDxe:ArpImpl.obj
 0001:000025ac       ArpConfigure               00000000000135ac f   ArpDxe:ArpMain.obj
 0001:00002658       ArpAdd                     0000000000013658 f   ArpDxe:ArpMain.obj
 0001:00002858       ArpFind                    0000000000013858 f   ArpDxe:ArpMain.obj
 0001:00002978       ArpDelete                  0000000000013978 f   ArpDxe:ArpMain.obj
 0001:00002a44       ArpFlush                   0000000000013a44 f   ArpDxe:ArpMain.obj
 0001:00002af4       ArpRequest                 0000000000013af4 f   ArpDxe:ArpMain.obj
 0001:00002de4       ArpCancel                  0000000000013de4 f   ArpDxe:ArpMain.obj
 0001:00002ec8       CopyMem                    0000000000013ec8 f   BaseMemoryLibOptDxe:CopyMemWrapper.obj
 0001:00002f64       ZeroMem                    0000000000013f64 f   BaseMemoryLibOptDxe:ZeroMemWrapper.obj
 0001:00002fc8       CompareMem                 0000000000013fc8 f   BaseMemoryLibOptDxe:CompareMemWrapper.obj
 0001:000030a0       InternalBaseLibIsListValid 00000000000140a0 f   BaseLib:LinkedList.obj
 0001:00003130       InitializeListHead         0000000000014130 f   BaseLib:LinkedList.obj
 0001:00003168       InsertHeadList             0000000000014168 f   BaseLib:LinkedList.obj
 0001:000031b8       InsertTailList             00000000000141b8 f   BaseLib:LinkedList.obj
 0001:0000320c       IsListEmpty                000000000001420c f   BaseLib:LinkedList.obj
 0001:00003244       RemoveEntryList            0000000000014244 f   BaseLib:LinkedList.obj
 0001:0000328c       DebugPrint                 000000000001428c f   PeiDxeDebugLibReportStatusCode:DebugLib.obj
 0001:00003460       DebugAssert                0000000000014460 f   PeiDxeDebugLibReportStatusCode:DebugLib.obj
 0001:000035b0       InternalAllocatePool       00000000000145b0 f   UefiMemoryAllocationLib:MemoryAllocationLib.obj
 0001:000035e0       FreePool                   00000000000145e0 f   UefiMemoryAllocationLib:MemoryAllocationLib.obj
 0001:00003624       CompareIso639LanguageCode  0000000000014624 f   UefiLib:UefiLib.obj
 0001:0000368c       EfiGetSystemConfigurationTable 000000000001468c f   UefiLib:UefiLib.obj
 0001:0000370c       LookupUnicodeString2       000000000001470c f   UefiLib:UefiLib.obj
 0001:0000385c       GetHobList                 000000000001485c f   DxeHobLib:HobLib.obj
 0001:000038d0       GetNextHob                 00000000000148d0 f   DxeHobLib:HobLib.obj
 0001:00003920       GetDebugPrintErrorLevel    0000000000014920 f   DxeDebugPrintErrorLevelLib:DxeDebugPrintErrorLevelLib.obj
 0001:00003a3c       GetDebugMask               0000000000014a3c f   DxeDebugPrintErrorLevelLib:DxeDebugPrintErrorLevelLib.obj
 0001:00003a58       SetDebugMask               0000000000014a58 f   DxeDebugPrintErrorLevelLib:DxeDebugPrintErrorLevelLib.obj
 0001:00003a64       NetListRemoveHead          0000000000014a64 f   DxeNetLib:DxeNetLib.obj
 0001:00003abc       NetDestroyLinkList         0000000000014abc f   DxeNetLib:DxeNetLib.obj
 0001:00003bc4       NetMapAllocItem            0000000000014bc4 f   DxeNetLib:DxeNetLib.obj
 0001:00003c48       NetMapInsertTail           0000000000014c48 f   DxeNetLib:DxeNetLib.obj
 0001:00003cc4       InternalReportStatusCode   0000000000014cc4 f   DxeReportStatusCodeLib:ReportStatusCodeLib.obj
 0001:00003d8c       ReportStatusCodeEx         0000000000014d8c f   DxeReportStatusCodeLib:ReportStatusCodeLib.obj
 0001:00003f60       CopyGuid                   0000000000014f60 f   BaseMemoryLibOptDxe:MemLibGuid.obj
 0001:00003fe4       CompareGuid                0000000000014fe4 f   BaseMemoryLibOptDxe:MemLibGuid.obj
 0001:0000404c       AsciiStrLen                000000000001504c f   BaseLib:String.obj
 0001:000040b8       AsciiStrnCmp               00000000000150b8 f   BaseLib:String.obj
 0001:00004184       AsciiStrnLenS              0000000000015184 f   BaseLib:SafeString.obj
 0001:000041b0       AsciiStrnCpyS              00000000000151b0 f   BaseLib:SafeString.obj
 0001:000042ac       ReadUnaligned64            00000000000152ac f   BaseLib:Unaligned.obj
 0002:00000000       ??_C@_0CB@DMEJJJHA@?6ASSERT_EFI_ERROR?5?$CIStatus?5?$DN?5?$CFr?$CJ@ 0000000000016000     UefiDriverEntryPoint:DriverEntryPoint.obj
 0002:00000028       ??_C@_0BE@DCHLEIGN@?$CBEFI_ERROR?5?$CIStatus?$CJ@ 0000000000016028     UefiDriverEntryPoint:DriverEntryPoint.obj
 0002:00000040       ??_C@_0DP@IIJLMAMA@c?3?2edk2?2MdePkg?2Library?2UefiDriv@ 0000000000016040     UefiDriverEntryPoint:DriverEntryPoint.obj
 0002:00000080       _gDriverUnloadImageCount   0000000000016080     ArpDxe:AutoGen.obj
 0002:00000081       _gPcd_FixedAtBuild_PcdReportStatusCodePropertyMask 0000000000016081     ArpDxe:AutoGen.obj
 0002:00000082       _gPcd_FixedAtBuild_PcdComponentNameDisable 0000000000016082     ArpDxe:AutoGen.obj
 0002:00000083       _gPcd_FixedAtBuild_PcdDebugPropertyMask 0000000000016083     ArpDxe:AutoGen.obj
 0002:00000084       _gUefiDriverRevision       0000000000016084     ArpDxe:AutoGen.obj
 0002:00000088       _gPcd_FixedAtBuild_PcdMaximumLinkedListLength 0000000000016088     ArpDxe:AutoGen.obj
 0002:0000008c       _gPcd_FixedAtBuild_PcdDebugPrintErrorLevel 000000000001608c     ArpDxe:AutoGen.obj
 0002:00000090       _gPcd_FixedAtBuild_PcdFixedDebugPrintErrorLevel 0000000000016090     ArpDxe:AutoGen.obj
 0002:00000094       _gPcd_FixedAtBuild_PcdMaximumAsciiStringLength 0000000000016094     ArpDxe:AutoGen.obj
 0002:00000098       gEfiCallerBaseName         0000000000016098     ArpDxe:AutoGen.obj
 0002:000000a0       _gPcd_FixedAtBuild_PcdComponentName2Disable 00000000000160a0     ArpDxe:AutoGen.obj
 0002:000000a1       _gPcd_FixedAtBuild_PcdVerifyNodeInList 00000000000160a1     ArpDxe:AutoGen.obj
 0002:000000a4       mUefiDevicePathLibEndDevicePath 00000000000160a4     UefiDevicePathLibDevicePathProtocol:UefiDevicePathLib.obj
 0002:000000a8       ??_C@_06GJMJHLCJ@ArpDxe@   00000000000160a8     ArpDxe:AutoGen.obj
 0002:000000b0       ??_C@_0GE@DKDPJFDO@c?3?2edk2?2Build?2NT32X64?2DEBUG_VS2@ 00000000000160b0     ArpDxe:AutoGen.obj
 0002:00000118       ??_C@_0BL@HOPCCABG@ArpService?5?$CB?$DN?5?$CI?$CIvoid?5?$CK?$CJ?50?$CJ@ 0000000000016118     ArpDxe:ArpDriver.obj
 0002:00000138       ??_C@_0DK@LEEPBFCO@c?3?2edk2?2MdeModulePkg?2Universal?2@ 0000000000016138     ArpDxe:ArpDriver.obj
 0002:00000180       ??_C@_0HH@OEMAMHMF@?$CI?$CIArpService?$CJ?5?$CB?$DN?5?$CI?$CIvoid?5?$CK?$CJ?50?$CJ?$CJ?5@ 0000000000016180     ArpDxe:ArpDriver.obj
 0002:000001f8       ??_C@_0BF@NDBIKIKC@CR?5has?5Bad?5Signature@ 00000000000161f8     ArpDxe:ArpDriver.obj
 0002:00000210       ??_C@_0CO@NKFGGBOK@ArpDriverBindingStop?3?5Open?5ArpS@ 0000000000016210     ArpDxe:ArpDriver.obj
 0002:00000240       ??_C@_0CP@DPCPFIAK@IsListEmpty?5?$CI?$CGArpService?9?$DOPendi@ 0000000000016240     ArpDxe:ArpDriver.obj
 0002:00000270       ??_C@_0CM@LCOLGKJA@IsListEmpty?5?$CI?$CGArpService?9?$DODenie@ 0000000000016270     ArpDxe:ArpDriver.obj
 0002:000002a0       ??_C@_0CO@JKFJMLEO@IsListEmpty?5?$CI?$CGArpService?9?$DOResol@ 00000000000162a0     ArpDxe:ArpDriver.obj
 0002:000002d0       ??_C@_0DL@LNGPHNHN@ArpSBCreateChild?3?5Failed?5to?5all@ 00000000000162d0     ArpDxe:ArpDriver.obj
 0002:00000310       ??_C@_0DG@BKHBKAHP@ArpSBCreateChild?3?5faild?5to?5inst@ 0000000000016310     ArpDxe:ArpDriver.obj
 0002:00000348       ??_C@_0DO@EDBFBAPL@ArpSBDestroyChild?3?5Failed?5to?5un@ 0000000000016348     ArpDxe:ArpDriver.obj
 0002:00000388       ??_C@_03LKLGDMJI@eng@      0000000000016388     ArpDxe:ComponentName.obj
 0002:0000038c       ??_C@_02LFNMGJAP@en@       000000000001638c     ArpDxe:ComponentName.obj
 0002:00000390       ??_C@_06DALJLGPG@eng?$DLen@ 0000000000016390     ArpDxe:ComponentName.obj
 0002:00000398       ??_C@_1DG@MAGPPHDD@?$AAA?$AAR?$AAP?$AA?5?$AAN?$AAe?$AAt?$AAw?$AAo?$AAr?$AAk?$AA?5?$AAS?$AAe?$AAr@ 0000000000016398     ArpDxe:ComponentName.obj
 0002:000003d0       ??_C@_1BO@OPAEHCBJ@?$AAA?$AAR?$AAP?$AA?5?$AAC?$AAo?$AAn?$AAt?$AAr?$AAo?$AAl?$AAl?$AAe?$AAr@ 00000000000163d0     ArpDxe:ComponentName.obj
 0002:000003f0       ??_C@_0DI@JNPHFAHH@c?3?2edk2?2MdeModulePkg?2Universal?2@ 00000000000163f0     ArpDxe:ArpImpl.obj
 0002:00000430       ??_C@_0HD@MLDEIEGA@?$CI?$CIInstance?$CJ?5?$CB?$DN?5?$CI?$CIvoid?5?$CK?$CJ?50?$CJ?$CJ?5?$CG?$CG@ 0000000000016430     ArpDxe:ArpImpl.obj
 0002:000004a8       ??_C@_0DG@ILNKFPFJ@ArpOnFrameRcvd?3?5ArpService?9?$DOMnp@ 00000000000164a8     ArpDxe:ArpImpl.obj
 0002:000004e0       ??_C@_0BI@DNICFLOF@Context?5?$CB?$DN?5?$CI?$CIvoid?5?$CK?$CJ?50?$CJ@ 00000000000164e0     ArpDxe:ArpImpl.obj
 0002:000004f8       ??_C@_0CG@ONMDNHIG@ArpOnFrameSent?3?5TxToken?9?$DOStatus@ 00000000000164f8     ArpDxe:ArpImpl.obj
 0002:00000520       ??_C@_0CL@COMBBMPL@IsListEmpty?5?$CI?$CGCacheEntry?9?$DOUserR@ 0000000000016520     ArpDxe:ArpImpl.obj
 0002:00000550       ??_C@_0CL@KLACAMKO@?$CBIsListEmpty?$CI?$CGCacheEntry?9?$DOUserR@ 0000000000016550     ArpDxe:ArpImpl.obj
 0002:00000580       ??_C@_0DJ@HELGJJND@AddressOne?5?$CB?$DN?5?$CI?$CIvoid?5?$CK?$CJ?50?$CJ?5?$CG?$CG?5A@ 0000000000016580     ArpDxe:ArpImpl.obj
 0002:000005c0       ??_C@_0EH@DIJFAGEB@?$CIProtocolAddress?5?$CB?$DN?5?$CI?$CIvoid?5?$CK?$CJ?50@ 00000000000165c0     ArpDxe:ArpImpl.obj
 0002:00000610       ??_C@_0EA@GLPEJEOG@ArpConfigInstance?3?5AllocatePool@ 0000000000016610     ArpDxe:ArpImpl.obj
 0002:00000650       ??_C@_0DL@LJAAHLFO@?$CIInstance?5?$CB?$DN?5?$CI?$CIvoid?5?$CK?$CJ?50?$CJ?$CJ?5?$CG?$CG?5?$CI@ 0000000000016650     ArpDxe:ArpImpl.obj
 0002:00000690       ??_C@_0DD@FAKEBFAE@ArpSendFrame?3?5Allocate?5memory?5f@ 0000000000016690     ArpDxe:ArpImpl.obj
 0002:000006c8       ??_C@_0DG@BIJDFACK@ArpSendFrame?3?5CreateEvent?5faile@ 00000000000166c8     ArpDxe:ArpImpl.obj
 0002:00000700       ??_C@_0DC@GOOFJHEK@ArpSendFrame?3?5Allocate?5memory?5f@ 0000000000016700     ArpDxe:ArpImpl.obj
 0002:00000738       ??_C@_0DC@FCCOCOMJ@ArpSendFrame?3?5Allocate?5memory?5f@ 0000000000016738     ArpDxe:ArpImpl.obj
 0002:00000770       ??_C@_0BH@CELONLOG@Packet?5?$CB?$DN?5?$CI?$CIvoid?5?$CK?$CJ?50?$CJ@ 0000000000016770     ArpDxe:ArpImpl.obj
 0002:00000788       ??_C@_0BL@MDLNNGFA@Mnp?9?$DOTransmit?5failed?0?5?$CFr?4?6@ 0000000000016788     ArpDxe:ArpImpl.obj
 0002:000007a8       ??_C@_0CP@EACDFCMH@ArpFindCacheEntry?3?5Failed?5to?5al@ 00000000000167a8     ArpDxe:ArpImpl.obj
 0002:000007d8       ??_C@_0DI@NJIDIJGH@c?3?2edk2?2MdeModulePkg?2Universal?2@ 00000000000167d8     ArpDxe:ArpMain.obj
 0002:00000810       ??_C@_0DB@HHEDNJEI@ArpAdd?3?5Failed?5to?5allocate?5pool@ 0000000000016810     ArpDxe:ArpMain.obj
 0002:00000848       ??_C@_0DI@DMMJLIIM@ArpRequest?3?5Allocate?5memory?5for@ 0000000000016848     ArpDxe:ArpMain.obj
 0002:00000880       ??_C@_0DE@KDEKIHAM@ArpRequest?3?5Allocate?5memory?5for@ 0000000000016880     ArpDxe:ArpMain.obj
 0002:000008c0       ??_C@_0ED@MKGCMJG@?$CILength?5?9?51?$CJ?5?$DM?$DN?5?$CI0xFFFFFFFFFFFF@ 00000000000168c0     BaseMemoryLibOptDxe:CopyMemWrapper.obj
 0002:00000908       ??_C@_0DM@DBGKHDAI@c?3?2edk2?2MdePkg?2Library?2BaseMemo@ 0000000000016908     BaseMemoryLibOptDxe:CopyMemWrapper.obj
 0002:00000948       ??_C@_0DO@MAOBOFEG@?$CILength?5?9?51?$CJ?5?$DM?$DN?5?$CI0xFFFFFFFFFFFF@ 0000000000016948     BaseMemoryLibOptDxe:CopyMemWrapper.obj
 0002:00000988       ??_C@_0BH@IACGKAP@Buffer?5?$CB?$DN?5?$CI?$CIvoid?5?$CK?$CJ?50?$CJ@ 0000000000016988     BaseMemoryLibOptDxe:ZeroMemWrapper.obj
 0002:000009a0       ??_C@_0DM@IFMIBCMP@c?3?2edk2?2MdePkg?2Library?2BaseMemo@ 00000000000169a0     BaseMemoryLibOptDxe:ZeroMemWrapper.obj
 0002:000009e0       ??_C@_0DG@EEENIGGL@Length?5?$DM?$DN?5?$CI0xFFFFFFFFFFFFFFFFUL@ 00000000000169e0     BaseMemoryLibOptDxe:ZeroMemWrapper.obj
 0002:00000a18       ??_C@_0CC@JOEHDGKB@DestinationBuffer?5?$CB?$DN?5?$CI?$CIvoid?5?$CK?$CJ?5@ 0000000000016a18     BaseMemoryLibOptDxe:CompareMemWrapper.obj
 0002:00000a40       ??_C@_0DP@CPGOBMAI@c?3?2edk2?2MdePkg?2Library?2BaseMemo@ 0000000000016a40     BaseMemoryLibOptDxe:CompareMemWrapper.obj
 0002:00000a80       ??_C@_0BN@MDMCNBCC@SourceBuffer?5?$CB?$DN?5?$CI?$CIvoid?5?$CK?$CJ?50?$CJ@ 0000000000016a80     BaseMemoryLibOptDxe:CompareMemWrapper.obj
 0002:00000aa0       ??_C@_0BF@NJNGJMPC@List?5?$CB?$DN?5?$CI?$CIvoid?5?$CK?$CJ?50?$CJ@ 0000000000016aa0     BaseLib:LinkedList.obj
 0002:00000ab8       ??_C@_0CM@FDGEGMJJ@c?3?2edk2?2MdePkg?2Library?2BaseLib?2@ 0000000000016ab8     BaseLib:LinkedList.obj
 0002:00000ae8       ??_C@_0CC@KDLPLAED@List?9?$DOForwardLink?5?$CB?$DN?5?$CI?$CIvoid?5?$CK?$CJ?5@ 0000000000016ae8     BaseLib:LinkedList.obj
 0002:00000b10       ??_C@_0BP@IJJCCMAK@List?9?$DOBackLink?5?$CB?$DN?5?$CI?$CIvoid?5?$CK?$CJ?50?$CJ@ 0000000000016b10     BaseLib:LinkedList.obj
 0002:00000b30       ??_C@_0BJ@NJABNCDK@ListHead?5?$CB?$DN?5?$CI?$CIvoid?5?$CK?$CJ?50?$CJ@ 0000000000016b30     BaseLib:LinkedList.obj
 0002:00000b50       ??_C@_0CG@LGIALJFK@InternalBaseLibIsListValid?5?$CILis@ 0000000000016b50     BaseLib:LinkedList.obj
 0002:00000b78       ??_C@_0CC@JLDICICM@InternalBaseLibIsListValid?5?$CILis@ 0000000000016b78     BaseLib:LinkedList.obj
 0002:00000ba0       ??_C@_0BF@NMBJJECB@?$CBIsListEmpty?5?$CIEntry?$CJ@ 0000000000016ba0     BaseLib:LinkedList.obj
 0002:00000bb8       ??_C@_0BH@LKMBFCBF@Format?5?$CB?$DN?5?$CI?$CIvoid?5?$CK?$CJ?50?$CJ@ 0000000000016bb8     PeiDxeDebugLibReportStatusCode:DebugLib.obj
 0002:00000bd0       ??_C@_0EH@EMGPELNE@c?3?2edk2?2MdeModulePkg?2Library?2Pe@ 0000000000016bd0     PeiDxeDebugLibReportStatusCode:DebugLib.obj
 0002:00000c18       ??_C@_0CI@HIINONDG@?$CICHAR8?5?$CK?$CJBaseListMarker?5?$DM?$DN?5Form@ 0000000000016c18     PeiDxeDebugLibReportStatusCode:DebugLib.obj
 0002:00000c40       ??_C@_01OHGJGJJP@?$FL@     0000000000016c40     PeiDxeDebugLibReportStatusCode:DebugLib.obj
 0002:00000c44       ??_C@_02PBFOLPKM@?$FN?5@   0000000000016c44     PeiDxeDebugLibReportStatusCode:DebugLib.obj
 0002:00000c48       ??_C@_0BN@COECPDCC@gImageHandle?5?$CB?$DN?5?$CI?$CIvoid?5?$CK?$CJ?50?$CJ@ 0000000000016c48     UefiBootServicesTableLib:UefiBootServicesTableLib.obj
 0002:00000c70       ??_C@_0EL@ODFJBOBF@c?3?2edk2?2MdePkg?2Library?2UefiBoot@ 0000000000016c70     UefiBootServicesTableLib:UefiBootServicesTableLib.obj
 0002:00000cc0       ??_C@_0BE@DGNHAHIL@gST?5?$CB?$DN?5?$CI?$CIvoid?5?$CK?$CJ?50?$CJ@ 0000000000016cc0     UefiBootServicesTableLib:UefiBootServicesTableLib.obj
 0002:00000cd8       ??_C@_0BE@BDFJLGLN@gBS?5?$CB?$DN?5?$CI?$CIvoid?5?$CK?$CJ?50?$CJ@ 0000000000016cd8     UefiBootServicesTableLib:UefiBootServicesTableLib.obj
 0002:00000cf0       ??_C@_0EF@NBCCMJKB@c?3?2edk2?2MdePkg?2Library?2UefiMemo@ 0000000000016cf0     UefiMemoryAllocationLib:MemoryAllocationLib.obj
 0002:00000d40       ??_C@_0EP@BCAOHHL@c?3?2edk2?2MdePkg?2Library?2UefiDevi@ 0000000000016d40     UefiDevicePathLibDevicePathProtocol:UefiDevicePathLib.obj
 0002:00000d90       ??_C@_0DC@CNNBPJA@mDevicePathLibDevicePathUtiliti@ 0000000000016d90     UefiDevicePathLibDevicePathProtocol:UefiDevicePathLib.obj
 0002:00000dc8       ??_C@_0BE@OBDFIHND@gRT?5?$CB?$DN?5?$CI?$CIvoid?5?$CK?$CJ?50?$CJ@ 0000000000016dc8     UefiRuntimeServicesTableLib:UefiRuntimeServicesTableLib.obj
 0002:00000de0       ??_C@_0FB@NIMBGODD@c?3?2edk2?2MdePkg?2Library?2UefiRunt@ 0000000000016de0     UefiRuntimeServicesTableLib:UefiRuntimeServicesTableLib.obj
 0002:00000e38       ??_C@_0DB@DDNPJJP@c?3?2edk2?2MdePkg?2Library?2UefiLib?2@ 0000000000016e38     UefiLib:UefiDriverModel.obj
 0002:00000e70       ??_C@_0CK@GGFNJPAK@c?3?2edk2?2MdePkg?2Library?2DxeHobLi@ 0000000000016e70     DxeHobLib:HobLib.obj
 0002:00000ea0       ??_C@_0BJ@OBFMLLDO@mHobList?5?$CB?$DN?5?$CI?$CIvoid?5?$CK?$CJ?50?$CJ@ 0000000000016ea0     DxeHobLib:HobLib.obj
 0002:00000ec0       ??_C@_0BJ@NOLLDKJB@HobStart?5?$CB?$DN?5?$CI?$CIvoid?5?$CK?$CJ?50?$CJ@ 0000000000016ec0     DxeHobLib:HobLib.obj
 0002:00000ee0       ??_C@_1BC@DPOIABCP@?$AAE?$AAF?$AAI?$AAD?$AAe?$AAb?$AAu?$AAg@ 0000000000016ee0     DxeDebugPrintErrorLevelLib:DxeDebugPrintErrorLevelLib.obj
 0002:00000ef8       ??_C@_0DD@KHCJANAG@c?3?2edk2?2MdeModulePkg?2Library?2Dx@ 0000000000016ef8     DxeNetLib:DxeNetLib.obj
 0002:00000f30       ??_C@_0BF@FBEMMEEB@Head?5?$CB?$DN?5?$CI?$CIvoid?5?$CK?$CJ?50?$CJ@ 0000000000016f30     DxeNetLib:DxeNetLib.obj
 0002:00000f48       ??_C@_0BE@GMKCNDGH@Map?5?$CB?$DN?5?$CI?$CIvoid?5?$CK?$CJ?50?$CJ@ 0000000000016f48     DxeNetLib:DxeNetLib.obj
 0002:00000f60       ??_C@_0CO@MHIOADDG@?$CIMap?9?$DOCount?5?$DN?$DN?50?$CJ?5?$CG?$CG?5IsListEmpt@ 0000000000016f60     DxeNetLib:DxeNetLib.obj
 0002:00000f90       ??_C@_0BN@JFJNMPHO@IsListEmpty?5?$CI?$CGMap?9?$DORecycled?$CJ@ 0000000000016f90     DxeNetLib:DxeNetLib.obj
 0002:00000fb0       ??_C@_0CL@KMKICODD@Map?5?$CB?$DN?5?$CI?$CIvoid?5?$CK?$CJ?50?$CJ?5?$CG?$CG?5Key?5?$CB?$DN?5?$CI@ 0000000000016fb0     DxeNetLib:DxeNetLib.obj
 0002:00000fe0       ??_C@_0CB@DNKJKBEA@Map?5?$CG?$CG?5?$CBIsListEmpty?5?$CI?$CGMap?9?$DOUsed@ 0000000000016fe0     DxeNetLib:DxeNetLib.obj
 0002:00001010       ??_C@_0EG@FMMHPKDI@?$CIServiceBindingGuid?5?$CB?$DN?5?$CI?$CIvoid?5?$CK@ 0000000000017010     DxeNetLib:DxeNetLib.obj
 0002:00001058       ??_C@_0DA@FEJKJGCA@c?3?2edk2?2MdeModulePkg?2Library?2Dx@ 0000000000017058     DxeDpcLib:DpcLib.obj
 0002:00001090       ??_C@_0EK@NEAGPEKB@c?3?2edk2?2MdeModulePkg?2Library?2Dx@ 0000000000017090     DxeReportStatusCodeLib:ReportStatusCodeLib.obj
 0002:000010e0       ??_C@_0DN@HHIHPHHB@?$CB?$CI?$CIExtendedData?5?$DN?$DN?5?$CI?$CIvoid?5?$CK?$CJ?50?$CJ@ 00000000000170e0     DxeReportStatusCodeLib:ReportStatusCodeLib.obj
 0002:00001120       ??_C@_0DN@BBBIFINB@?$CB?$CI?$CIExtendedData?5?$CB?$DN?5?$CI?$CIvoid?5?$CK?$CJ?50?$CJ@ 0000000000017120     DxeReportStatusCodeLib:ReportStatusCodeLib.obj
 0002:00001160       ??_C@_0DI@MIEIGAOH@Status?5code?5extended?5data?5is?5to@ 0000000000017160     DxeReportStatusCodeLib:ReportStatusCodeLib.obj
 0002:00001198       ??_C@_0CI@BEFOLLLE@c?3?2edk2?2MdePkg?2Library?2BaseLib?2@ 0000000000017198     BaseLib:String.obj
 0002:000011c0       ??_C@_0BH@MAAHKCPC@String?5?$CB?$DN?5?$CI?$CIvoid?5?$CK?$CJ?50?$CJ@ 00000000000171c0     BaseLib:String.obj
 0002:000011d8       ??_C@_0DJ@JJHGIFMP@Length?5?$DM?$DN?5_gPcd_FixedAtBuild_Pc@ 00000000000171d8     BaseLib:String.obj
 0002:00001218       ??_C@_0DI@MDIKFADO@Length?5?$DM?5_gPcd_FixedAtBuild_Pcd@ 0000000000017218     BaseLib:String.obj
 0002:00001250       ??_C@_0BL@IKFBNFIL@AsciiStrSize?5?$CIFirstString?$CJ@ 0000000000017250     BaseLib:String.obj
 0002:00001270       ??_C@_0BM@EDNOKLLE@AsciiStrSize?5?$CISecondString?$CJ@ 0000000000017270     BaseLib:String.obj
 0002:00001290       ??_C@_0CM@GBAFEFEA@c?3?2edk2?2MdePkg?2Library?2BaseLib?2@ 0000000000017290     BaseLib:SafeString.obj
 0002:000012c0       ??_C@_0BO@ECNIOIHG@?$CIDestination?5?$CB?$DN?5?$CI?$CIvoid?5?$CK?$CJ?50?$CJ?$CJ@ 00000000000172c0     BaseLib:SafeString.obj
 0002:000012e0       ??_C@_0BJ@EAEEJIP@?$CISource?5?$CB?$DN?5?$CI?$CIvoid?5?$CK?$CJ?50?$CJ?$CJ@ 00000000000172e0     BaseLib:SafeString.obj
 0002:00001300       ??_C@_0FL@CDANCHFO@InternalSafeStringNoAsciiStrOve@ 0000000000017300     BaseLib:SafeString.obj
 0002:00001360       ??_C@_0CL@COEFNOFM@c?3?2edk2?2MdePkg?2Library?2BaseLib?2@ 0000000000017360     BaseLib:Unaligned.obj
 0003:00000000       gEfiLoadedImageProtocolGuid 0000000000018000     ArpDxe:AutoGen.obj
 0003:00000010       gEfiStatusCodeSpecificDataGuid 0000000000018010     ArpDxe:AutoGen.obj
 0003:00000020       gEfiDriverDiagnostics2ProtocolGuid 0000000000018020     ArpDxe:AutoGen.obj
 0003:00000030       gEfiGlobalVariableGuid     0000000000018030     ArpDxe:AutoGen.obj
 0003:00000040       gEfiStatusCodeRuntimeProtocolGuid 0000000000018040     ArpDxe:AutoGen.obj
 0003:00000050       gEfiGenericVariableGuid    0000000000018050     ArpDxe:AutoGen.obj
 0003:00000060       gEfiDriverDiagnosticsProtocolGuid 0000000000018060     ArpDxe:AutoGen.obj
 0003:00000070       gEfiComponentName2ProtocolGuid 0000000000018070     ArpDxe:AutoGen.obj
 0003:00000080       gEfiAdapterInformationProtocolGuid 0000000000018080     ArpDxe:AutoGen.obj
 0003:00000090       gEfiDriverConfiguration2ProtocolGuid 0000000000018090     ArpDxe:AutoGen.obj
 0003:000000a0       gEfiDevicePathProtocolGuid 00000000000180a0     ArpDxe:AutoGen.obj
 0003:000000b0       gEfiSimpleNetworkProtocolGuid 00000000000180b0     ArpDxe:AutoGen.obj
 0003:000000c0       gEfiDevicePathToTextProtocolGuid 00000000000180c0     ArpDxe:AutoGen.obj
 0003:000000d0       gEfiStatusCodeDataTypeDebugGuid 00000000000180d0     ArpDxe:AutoGen.obj
 0003:000000e0       gEfiIp4Config2ProtocolGuid 00000000000180e0     ArpDxe:AutoGen.obj
 0003:000000f0       gEfiDevicePathUtilitiesProtocolGuid 00000000000180f0     ArpDxe:AutoGen.obj
 0003:00000100       gEfiDevicePathFromTextProtocolGuid 0000000000018100     ArpDxe:AutoGen.obj
 0003:00000110       gEfiSmbios3TableGuid       0000000000018110     ArpDxe:AutoGen.obj
 0003:00000120       gEfiSmbiosTableGuid        0000000000018120     ArpDxe:AutoGen.obj
 0003:00000130       gEfiHobListGuid            0000000000018130     ArpDxe:AutoGen.obj
 0003:00000140       gEfiAdapterInfoMediaStateGuid 0000000000018140     ArpDxe:AutoGen.obj
 0003:00000150       gEfiDriverConfigurationProtocolGuid 0000000000018150     ArpDxe:AutoGen.obj
 0003:00000160       gEfiDebugMaskProtocolGuid  0000000000018160     ArpDxe:AutoGen.obj
 0003:00000170       gEfiManagedNetworkServiceBindingProtocolGuid 0000000000018170     ArpDxe:AutoGen.obj
 0003:00000180       gEfiDriverBindingProtocolGuid 0000000000018180     ArpDxe:AutoGen.obj
 0003:00000190       gEfiArpServiceBindingProtocolGuid 0000000000018190     ArpDxe:AutoGen.obj
 0003:000001a0       gEfiComponentNameProtocolGuid 00000000000181a0     ArpDxe:AutoGen.obj
 0003:000001b0       gEfiDpcProtocolGuid        00000000000181b0     ArpDxe:AutoGen.obj
 0003:000001c0       gEfiCallerIdGuid           00000000000181c0     ArpDxe:AutoGen.obj
 0003:000001d0       gEfiManagedNetworkProtocolGuid 00000000000181d0     ArpDxe:AutoGen.obj
 0003:000001e0       gEfiArpProtocolGuid        00000000000181e0     ArpDxe:AutoGen.obj
 0003:000001f0       gArpDriverBinding          00000000000181f0     ArpDxe:ArpDriver.obj
 0003:00000220       gArpComponentName2         0000000000018220     ArpDxe:ComponentName.obj
 0003:00000238       gArpComponentName          0000000000018238     ArpDxe:ComponentName.obj
 0003:00000250       mArpDriverNameTable        0000000000018250     ArpDxe:ComponentName.obj
 0003:00000270       mArpControllerNameTable    0000000000018270     ArpDxe:ComponentName.obj
 0003:00000290       mEfiArpProtocolTemplate    0000000000018290     ArpDxe:ArpImpl.obj
 0003:000002c8       mDebugMaskProtocol         00000000000182c8     DxeDebugPrintErrorLevelLib:DxeDebugPrintErrorLevelLib.obj
 0003:000002e0       mSyslogDstMac              00000000000182e0     DxeNetLib:DxeNetLib.obj
 0003:000002e8       mNetVlanDevicePathTemplate 00000000000182e8     DxeNetLib:DxeNetLib.obj
 0003:000002f0       gST                        00000000000182f0     UefiBootServicesTableLib:UefiBootServicesTableLib.obj
 0003:000002f8       gBS                        00000000000182f8     UefiBootServicesTableLib:UefiBootServicesTableLib.obj
 0003:00000300       gImageHandle               0000000000018300     UefiBootServicesTableLib:UefiBootServicesTableLib.obj
 0003:00000308       mDevicePathLibDevicePathUtilities 0000000000018308     UefiDevicePathLibDevicePathProtocol:UefiDevicePathLib.obj
 0003:00000310       gRT                        0000000000018310     UefiRuntimeServicesTableLib:UefiRuntimeServicesTableLib.obj
 0003:00000318       mHobList                   0000000000018318     DxeHobLib:HobLib.obj
 0003:00000320       mSystemTable               0000000000018320     DxeDebugPrintErrorLevelLib:DxeDebugPrintErrorLevelLib.obj
 0003:00000328       mDebugPrintErrorLevel      0000000000018328     DxeDebugPrintErrorLevelLib:DxeDebugPrintErrorLevelLib.obj
 0003:0000032c       mGlobalErrorLevelInitialized 000000000001832c     DxeDebugPrintErrorLevelLib:DxeDebugPrintErrorLevelLib.obj
 0003:00000330       mReportStatusCodeLibStatusCodeProtocol 0000000000018330     DxeReportStatusCodeLib:ReportStatusCodeLib.obj
 0003:00000338       mDpc                       0000000000018338     <common>

 entry point at        0001:000002d0

 Static symbols

 0000:ffff3000       .debug$S                   0000000000010000     ArpDxe.exp
 0001:0000001a       InternalMemCopyMem.0       000000000001101a     BaseMemoryLibOptDxe:CopyMem.obj
 0001:00000032       InternalMemCopyMem.1       0000000000011032     BaseMemoryLibOptDxe:CopyMem.obj
 0001:00000045       InternalMemCopyMem.2       0000000000011045     BaseMemoryLibOptDxe:CopyMem.obj
 0001:00000062       @CopyBackward              0000000000011062     BaseMemoryLibOptDxe:CopyMem.obj
 0001:0000006b       @CopyBytes                 000000000001106b     BaseMemoryLibOptDxe:CopyMem.obj
 0004:00000000       .edata                     0000000000019000     ArpDxe.exp
 0004:00000028       rgpv                       0000000000019028     ArpDxe.exp
 0004:0000002c       rgszName                   000000000001902c     ArpDxe.exp
 0004:00000030       rgwOrd                     0000000000019030     ArpDxe.exp
 0004:00000032       szName                     0000000000019032     ArpDxe.exp
 0004:0000003d       $N00001                    000000000001903d     ArpDxe.exp
 0005:00000000       $pdata$_ModuleEntryPoint   000000000001a000     UefiDriverEntryPoint:DriverEntryPoint.obj
 0005:0000000c       $pdata$_DriverUnloadHandler 000000000001a00c     UefiDriverEntryPoint:DriverEntryPoint.obj
 0005:00000018       $pdata$ProcessLibraryDestructorList 000000000001a018     ArpDxe:AutoGen.obj
 0005:00000024       $pdata$ProcessLibraryConstructorList 000000000001a024     ArpDxe:AutoGen.obj
 0005:00000030       $pdata$ArpServiceBindingDestroyChild 000000000001a030     ArpDxe:ArpDriver.obj
 0005:0000003c       $pdata$ArpServiceBindingCreateChild 000000000001a03c     ArpDxe:ArpDriver.obj
 0005:00000048       $pdata$ArpDriverBindingStop 000000000001a048     ArpDxe:ArpDriver.obj
 0005:00000054       $pdata$ArpDriverBindingStart 000000000001a054     ArpDxe:ArpDriver.obj
 0005:00000060       $pdata$ArpDriverBindingSupported 000000000001a060     ArpDxe:ArpDriver.obj
 0005:0000006c       $pdata$ArpDestroyChildEntryInHandleBuffer 000000000001a06c     ArpDxe:ArpDriver.obj
 0005:00000078       $pdata$ArpCleanService     000000000001a078     ArpDxe:ArpDriver.obj
 0005:00000084       $pdata$ArpCreateService    000000000001a084     ArpDxe:ArpDriver.obj
 0005:00000090       $pdata$ArpComponentNameGetControllerName 000000000001a090     ArpDxe:ComponentName.obj
 0005:0000009c       $pdata$ArpComponentNameGetDriverName 000000000001a09c     ArpDxe:ComponentName.obj
 0005:000000a8       $pdata$ArpFindCacheEntry   000000000001a0a8     ArpDxe:ArpImpl.obj
 0005:000000b4       $pdata$ArpCancelRequest    000000000001a0b4     ArpDxe:ArpImpl.obj
 0005:000000c0       $pdata$ArpDeleteCacheEntryInTable 000000000001a0c0     ArpDxe:ArpImpl.obj
 0005:000000cc       $pdata$ArpSendFrame        000000000001a0cc     ArpDxe:ArpImpl.obj
 0005:000000d8       $pdata$ArpFillAddressInCacheEntry 000000000001a0d8     ArpDxe:ArpImpl.obj
 0005:000000e4       $pdata$ArpAddressResolved  000000000001a0e4     ArpDxe:ArpImpl.obj
 0005:000000f0       $pdata$ArpAllocCacheEntry  000000000001a0f0     ArpDxe:ArpImpl.obj
 0005:000000fc       $pdata$ArpFindDeniedCacheEntry 000000000001a0fc     ArpDxe:ArpImpl.obj
 0005:00000108       $pdata$ArpFindNextCacheEntryInTable 000000000001a108     ArpDxe:ArpImpl.obj
 0005:00000114       $pdata$ArpMatchAddress     000000000001a114     ArpDxe:ArpImpl.obj
 0005:00000120       $pdata$ArpOnFrameSentDpc   000000000001a120     ArpDxe:ArpImpl.obj
 0005:0000012c       $pdata$ArpOnFrameRcvdDpc   000000000001a12c     ArpDxe:ArpImpl.obj
 0005:00000138       $pdata$ArpTimerHandler     000000000001a138     ArpDxe:ArpImpl.obj
 0005:00000144       $pdata$ArpDeleteCacheEntry 000000000001a144     ArpDxe:ArpImpl.obj
 0005:00000150       $pdata$ArpConfigureInstance 000000000001a150     ArpDxe:ArpImpl.obj
 0005:0000015c       $pdata$ArpFlush            000000000001a15c     ArpDxe:ArpMain.obj
 0005:00000168       $pdata$ArpFind             000000000001a168     ArpDxe:ArpMain.obj
 0005:00000174       $pdata$ArpDelete           000000000001a174     ArpDxe:ArpMain.obj
 0005:00000180       $pdata$ArpConfigure        000000000001a180     ArpDxe:ArpMain.obj
 0005:0000018c       $pdata$ArpCancel           000000000001a18c     ArpDxe:ArpMain.obj
 0005:00000198       $pdata$ArpAdd              000000000001a198     ArpDxe:ArpMain.obj
 0005:000001a4       $pdata$ArpRequest          000000000001a1a4     ArpDxe:ArpMain.obj
 0005:000001b0       $pdata$CopyMem             000000000001a1b0     BaseMemoryLibOptDxe:CopyMemWrapper.obj
 0005:000001bc       $pdata$ZeroMem             000000000001a1bc     BaseMemoryLibOptDxe:ZeroMemWrapper.obj
 0005:000001c8       $pdata$CompareMem          000000000001a1c8     BaseMemoryLibOptDxe:CompareMemWrapper.obj
 0005:000001d4       $pdata$InternalBaseLibIsListValid 000000000001a1d4     BaseLib:LinkedList.obj
 0005:000001e0       $pdata$InsertHeadList      000000000001a1e0     BaseLib:LinkedList.obj
 0005:000001ec       $pdata$InitializeListHead  000000000001a1ec     BaseLib:LinkedList.obj
 0005:000001f8       $pdata$InsertTailList      000000000001a1f8     BaseLib:LinkedList.obj
 0005:00000204       $pdata$RemoveEntryList     000000000001a204     BaseLib:LinkedList.obj
 0005:00000210       $pdata$IsListEmpty         000000000001a210     BaseLib:LinkedList.obj
 0005:0000021c       $pdata$DebugPrint          000000000001a21c     PeiDxeDebugLibReportStatusCode:DebugLib.obj
 0005:00000228       $pdata$DebugAssert         000000000001a228     PeiDxeDebugLibReportStatusCode:DebugLib.obj
 0005:00000234       $pdata$InternalAllocatePool 000000000001a234     UefiMemoryAllocationLib:MemoryAllocationLib.obj
 0005:00000240       $pdata$FreePool            000000000001a240     UefiMemoryAllocationLib:MemoryAllocationLib.obj
 0005:0000024c       $pdata$EfiGetSystemConfigurationTable 000000000001a24c     UefiLib:UefiLib.obj
 0005:00000258       $pdata$CompareIso639LanguageCode 000000000001a258     UefiLib:UefiLib.obj
 0005:00000264       $pdata$LookupUnicodeString2 000000000001a264     UefiLib:UefiLib.obj
 0005:00000270       $pdata$GetNextHob          000000000001a270     DxeHobLib:HobLib.obj
 0005:0000027c       $pdata$GetHobList          000000000001a27c     DxeHobLib:HobLib.obj
 0005:00000288       $pdata$GetDebugPrintErrorLevel 000000000001a288     DxeDebugPrintErrorLevelLib:DxeDebugPrintErrorLevelLib.obj
 0005:00000294       $pdata$NetMapAllocItem     000000000001a294     DxeNetLib:DxeNetLib.obj
 0005:000002a0       $pdata$NetListRemoveHead   000000000001a2a0     DxeNetLib:DxeNetLib.obj
 0005:000002ac       $pdata$NetMapInsertTail    000000000001a2ac     DxeNetLib:DxeNetLib.obj
 0005:000002b8       $pdata$NetDestroyLinkList  000000000001a2b8     DxeNetLib:DxeNetLib.obj
 0005:000002c4       $pdata$InternalReportStatusCode 000000000001a2c4     DxeReportStatusCodeLib:ReportStatusCodeLib.obj
 0005:000002d0       $pdata$ReportStatusCodeEx  000000000001a2d0     DxeReportStatusCodeLib:ReportStatusCodeLib.obj
 0005:000002dc       $pdata$CopyGuid            000000000001a2dc     BaseMemoryLibOptDxe:MemLibGuid.obj
 0005:000002e8       $pdata$CompareGuid         000000000001a2e8     BaseMemoryLibOptDxe:MemLibGuid.obj
 0005:000002f4       $pdata$AsciiStrLen         000000000001a2f4     BaseLib:String.obj
 0005:00000300       $pdata$AsciiStrnCmp        000000000001a300     BaseLib:String.obj
 0005:0000030c       $pdata$AsciiStrnCpyS       000000000001a30c     BaseLib:SafeString.obj
 0005:00000318       $pdata$ReadUnaligned64     000000000001a318     BaseLib:Unaligned.obj
 0006:00000000       $unwind$_DriverUnloadHandler 000000000001b000     UefiDriverEntryPoint:DriverEntryPoint.obj
 0006:00000010       $unwind$_ModuleEntryPoint  000000000001b010     UefiDriverEntryPoint:DriverEntryPoint.obj
 0006:00000024       $unwind$ProcessLibraryConstructorList 000000000001b024     ArpDxe:AutoGen.obj
 0006:0000003c       $unwind$ProcessLibraryDestructorList 000000000001b03c     ArpDxe:AutoGen.obj
 0006:0000003c       $unwind$GetHobList         000000000001b03c     DxeHobLib:HobLib.obj
 0006:0000003c       $unwind$FreePool           000000000001b03c     UefiMemoryAllocationLib:MemoryAllocationLib.obj
 0006:0000003c       $unwind$InternalAllocatePool 000000000001b03c     UefiMemoryAllocationLib:MemoryAllocationLib.obj
 0006:00000044       $unwind$ArpCreateService   000000000001b044     ArpDxe:ArpDriver.obj
 0006:00000058       $unwind$ArpCleanService    000000000001b058     ArpDxe:ArpDriver.obj
 0006:00000064       $unwind$ArpMatchAddress    000000000001b064     ArpDxe:ArpImpl.obj
 0006:00000064       $unwind$ArpOnFrameSentDpc  000000000001b064     ArpDxe:ArpImpl.obj
 0006:00000064       $unwind$ArpDestroyChildEntryInHandleBuffer 000000000001b064     ArpDxe:ArpDriver.obj
 0006:00000064       $unwind$NetMapAllocItem    000000000001b064     DxeNetLib:DxeNetLib.obj
 0006:00000064       $unwind$AsciiStrLen        000000000001b064     BaseLib:String.obj
 0006:00000064       $unwind$ArpAllocCacheEntry 000000000001b064     ArpDxe:ArpImpl.obj
 0006:00000064       $unwind$CompareIso639LanguageCode 000000000001b064     UefiLib:UefiLib.obj
 0006:00000064       $unwind$InsertTailList     000000000001b064     BaseLib:LinkedList.obj
 0006:00000064       $unwind$ZeroMem            000000000001b064     BaseMemoryLibOptDxe:ZeroMemWrapper.obj
 0006:00000064       $unwind$ArpFlush           000000000001b064     ArpDxe:ArpMain.obj
 0006:00000064       $unwind$InsertHeadList     000000000001b064     BaseLib:LinkedList.obj
 0006:00000064       $unwind$InternalBaseLibIsListValid 000000000001b064     BaseLib:LinkedList.obj
 0006:00000070       $unwind$ArpDriverBindingSupported 000000000001b070     ArpDxe:ArpDriver.obj
 0006:0000007c       $unwind$ArpDriverBindingStart 000000000001b07c     ArpDxe:ArpDriver.obj
 0006:00000088       $unwind$ArpDriverBindingStop 000000000001b088     ArpDxe:ArpDriver.obj
 0006:0000009c       $unwind$ArpServiceBindingCreateChild 000000000001b09c     ArpDxe:ArpDriver.obj
 0006:000000b4       $unwind$ArpServiceBindingDestroyChild 000000000001b0b4     ArpDxe:ArpDriver.obj
 0006:000000c8       $unwind$ArpComponentNameGetDriverName 000000000001b0c8     ArpDxe:ComponentName.obj
 0006:000000d0       $unwind$ArpComponentNameGetControllerName 000000000001b0d0     ArpDxe:ComponentName.obj
 0006:000000e4       $unwind$ArpOnFrameRcvdDpc  000000000001b0e4     ArpDxe:ArpImpl.obj
 0006:00000100       $unwind$ArpTimerHandler    000000000001b100     ArpDxe:ArpImpl.obj
 0006:00000118       $unwind$ArpFindNextCacheEntryInTable 000000000001b118     ArpDxe:ArpImpl.obj
 0006:00000118       $unwind$LookupUnicodeString2 000000000001b118     UefiLib:UefiLib.obj
 0006:00000130       $unwind$ArpFindDeniedCacheEntry 000000000001b130     ArpDxe:ArpImpl.obj
 0006:00000140       $unwind$ArpAddressResolved 000000000001b140     ArpDxe:ArpImpl.obj
 0006:0000015c       $unwind$ArpFillAddressInCacheEntry 000000000001b15c     ArpDxe:ArpImpl.obj
 0006:0000016c       $unwind$ArpConfigureInstance 000000000001b16c     ArpDxe:ArpImpl.obj
 0006:0000017c       $unwind$ArpSendFrame       000000000001b17c     ArpDxe:ArpImpl.obj
 0006:00000194       $unwind$ArpDeleteCacheEntryInTable 000000000001b194     ArpDxe:ArpImpl.obj
 0006:00000194       $unwind$ArpCancelRequest   000000000001b194     ArpDxe:ArpImpl.obj
 0006:000001b0       $unwind$ArpDeleteCacheEntry 000000000001b1b0     ArpDxe:ArpImpl.obj
 0006:000001c8       $unwind$ArpFindCacheEntry  000000000001b1c8     ArpDxe:ArpImpl.obj
 0006:000001e8       $unwind$EfiGetSystemConfigurationTable 000000000001b1e8     UefiLib:UefiLib.obj
 0006:000001e8       $unwind$NetMapInsertTail   000000000001b1e8     DxeNetLib:DxeNetLib.obj
 0006:000001e8       $unwind$CopyGuid           000000000001b1e8     BaseMemoryLibOptDxe:MemLibGuid.obj
 0006:000001e8       $unwind$ArpConfigure       000000000001b1e8     ArpDxe:ArpMain.obj
 0006:000001e8       $unwind$AsciiStrnCmp       000000000001b1e8     BaseLib:String.obj
 0006:000001e8       $unwind$AsciiStrnCpyS      000000000001b1e8     BaseLib:SafeString.obj
 0006:000001f8       $unwind$ArpAdd             000000000001b1f8     ArpDxe:ArpMain.obj
 0006:00000218       $unwind$ArpFind            000000000001b218     ArpDxe:ArpMain.obj
 0006:00000234       $unwind$CompareGuid        000000000001b234     BaseMemoryLibOptDxe:MemLibGuid.obj
 0006:00000234       $unwind$ArpDelete          000000000001b234     ArpDxe:ArpMain.obj
 0006:00000234       $unwind$CopyMem            000000000001b234     BaseMemoryLibOptDxe:CopyMemWrapper.obj
 0006:00000234       $unwind$ArpCancel          000000000001b234     ArpDxe:ArpMain.obj
 0006:00000234       $unwind$NetDestroyLinkList 000000000001b234     DxeNetLib:DxeNetLib.obj
 0006:00000234       $unwind$CompareMem         000000000001b234     BaseMemoryLibOptDxe:CompareMemWrapper.obj
 0006:00000248       $unwind$ArpRequest         000000000001b248     ArpDxe:ArpMain.obj
 0006:00000268       $unwind$InitializeListHead 000000000001b268     BaseLib:LinkedList.obj
 0006:00000268       $unwind$GetNextHob         000000000001b268     DxeHobLib:HobLib.obj
 0006:00000268       $unwind$RemoveEntryList    000000000001b268     BaseLib:LinkedList.obj
 0006:00000268       $unwind$IsListEmpty        000000000001b268     BaseLib:LinkedList.obj
 0006:00000268       $unwind$ReadUnaligned64    000000000001b268     BaseLib:Unaligned.obj
 0006:00000268       $unwind$NetListRemoveHead  000000000001b268     DxeNetLib:DxeNetLib.obj
 0006:00000270       $unwind$DebugPrint         000000000001b270     PeiDxeDebugLibReportStatusCode:DebugLib.obj
 0006:00000280       $unwind$DebugAssert        000000000001b280     PeiDxeDebugLibReportStatusCode:DebugLib.obj
 0006:0000029c       $unwind$GetDebugPrintErrorLevel 000000000001b29c     DxeDebugPrintErrorLevelLib:DxeDebugPrintErrorLevelLib.obj
 0006:000002a4       $unwind$InternalReportStatusCode 000000000001b2a4     DxeReportStatusCodeLib:ReportStatusCodeLib.obj
 0006:000002bc       $unwind$ReportStatusCodeEx 000000000001b2bc     DxeReportStatusCodeLib:ReportStatusCodeLib.obj
